	.text
	.intel_syntax noprefix
	.def	 _Z9test_packPKd;
	.scl	2;
	.type	32;
	.endef
	.globl	_Z9test_packPKd
	.p2align	4, 0x90
_Z9test_packPKd:                        # @_Z9test_packPKd
.Lcfi0:
.seh_proc _Z9test_packPKd
# BB#0:
	push	rsi
.Lcfi1:
	.seh_pushreg 6
	sub	rsp, 32
.Lcfi2:
	.seh_stackalloc 32
.Lcfi3:
	.seh_endprologue
	mov	rsi, rcx
	call	_Z12test_pack_spIdN4math6scalarEEvPKT0_
	mov	rcx, rsi
	call	_Z12test_pack_spIdN4math6pack2dEEvPKT0_
	mov	rcx, rsi
	call	_Z12test_pack_spIN4math6scalarENS0_6pack2dEEvPKT0_
	mov	rcx, rsi
	call	_Z12test_pack_spIdN4math6pack4dEEvPKT0_
	mov	rcx, rsi
	call	_Z12test_pack_spIN4math6scalarENS0_6pack4dEEvPKT0_
	mov	rcx, rsi
	call	_Z12test_pack_spId1XEvPKT0_
	mov	rcx, rsi
	call	_Z12test_pack_spIN4math6scalarE1XEvPKT0_
	mov	rcx, rsi
	call	_Z12test_pack_spId1YEvPKT0_
	mov	rcx, rsi
	call	_Z12test_pack_spIN4math6scalarE1YEvPKT0_
	mov	rcx, rsi
	call	_Z12test_pack_spId1NEvPKT0_
	mov	rcx, rsi
	add	rsp, 32
	pop	rsi
	jmp	_Z12test_pack_spIN4math6scalarE1NEvPKT0_ # TAILCALL
	.seh_handlerdata
	.text
.Lcfi4:
	.seh_endproc

	.def	 _Z12test_pack_spIdN4math6scalarEEvPKT0_;
	.scl	2;
	.type	32;
	.endef
	.section	.text,"xr",discard,_Z12test_pack_spIdN4math6scalarEEvPKT0_
	.globl	_Z12test_pack_spIdN4math6scalarEEvPKT0_
	.p2align	4, 0x90
_Z12test_pack_spIdN4math6scalarEEvPKT0_: # @_Z12test_pack_spIdN4math6scalarEEvPKT0_
.Lcfi5:
.seh_proc _Z12test_pack_spIdN4math6scalarEEvPKT0_
# BB#0:
	push	rsi
.Lcfi6:
	.seh_pushreg 6
	push	rdi
.Lcfi7:
	.seh_pushreg 7
	push	rbp
.Lcfi8:
	.seh_pushreg 5
	push	rbx
.Lcfi9:
	.seh_pushreg 3
	sub	rsp, 120
.Lcfi10:
	.seh_stackalloc 120
	vmovapd	xmmword ptr [rsp + 96], xmm8 # 16-byte Spill
.Lcfi11:
	.seh_savexmm 8, 96
	vmovaps	xmmword ptr [rsp + 80], xmm7 # 16-byte Spill
.Lcfi12:
	.seh_savexmm 7, 80
	vmovapd	xmmword ptr [rsp + 64], xmm6 # 16-byte Spill
.Lcfi13:
	.seh_savexmm 6, 64
.Lcfi14:
	.seh_endprologue
	mov	rdx, qword ptr [rcx]
	mov	qword ptr [rsp + 56], rdx
	mov	qword ptr [rsp + 40], rdx
	vmovq	xmm7, rdx
	vucomisd	xmm7, xmm7
	jp	.LBB1_26
# BB#1:
	movabs	rax, count
	mov	ebx, dword ptr [rax]
	lea	edi, [rbx + 1]
	mov	dword ptr [rax], edi
	mov	rdi, qword ptr [rcx + 8]
	mov	qword ptr [rsp + 56], rdx
	mov	qword ptr [rsp + 40], rdi
	vmovq	xmm0, rdi
	vmulsd	xmm6, xmm0, xmm7
	vmovsd	qword ptr [rsp + 48], xmm6
	vucomisd	xmm6, xmm6
	jp	.LBB1_2
# BB#5:
	lea	esi, [rbx + 4]
	mov	dword ptr [rax], esi
	mov	qword ptr [rsp + 56], rdx
	mov	qword ptr [rsp + 40], rdi
	vaddsd	xmm8, xmm0, xmm7
	vmovsd	qword ptr [rsp + 48], xmm8
	vucomisd	xmm8, xmm8
	jp	.LBB1_6
# BB#7:
	add	ebx, 7
	mov	dword ptr [rax], ebx
	mov	rbx, qword ptr [rcx + 16]
	mov	qword ptr [rsp + 56], rdx
	mov	qword ptr [rsp + 40], rdi
	mov	qword ptr [rsp + 48], rbx
	#APP
	# TEST3 a * b + c -- P a = u1.p; S b = u2.d[0]; S c = u3.d[0];
	#NO_APP
	vmovq	xmm1, rbx
	vfmadd213sd	xmm7, xmm0, xmm1
	vmovq	rdx, xmm7
	vmovq	qword ptr [rsp + 32], xmm7
	vaddsd	xmm6, xmm6, xmm1
	vmovq	xmm0, rdx
	vucomisd	xmm6, xmm0
	jne	.LBB1_27
	jp	.LBB1_27
# BB#8:
	inc	dword ptr [rax]
	mov	rdx, qword ptr [rcx]
	mov	rbx, qword ptr [rcx + 8]
	mov	rdi, qword ptr [rcx + 16]
	mov	qword ptr [rsp + 56], rdx
	mov	qword ptr [rsp + 40], rbx
	mov	qword ptr [rsp + 48], rdi
	#APP
	# TEST3 a * b + c -- S a = u1.d[0]; P b = u2.p; S c = u3.d[0];
	#NO_APP
	vmovq	xmm0, rdx
	vmovq	xmm1, rbx
	vmovq	xmm2, rdi
	vmulsd	xmm3, xmm1, xmm0
	vfmadd213sd	xmm0, xmm1, xmm2
	vmovq	rdx, xmm0
	vmovq	qword ptr [rsp + 32], xmm0
	vaddsd	xmm6, xmm3, xmm2
	vmovq	xmm0, rdx
	vucomisd	xmm6, xmm0
	jne	.LBB1_28
	jp	.LBB1_28
# BB#9:
	inc	dword ptr [rax]
	mov	rdx, qword ptr [rcx]
	mov	rbx, qword ptr [rcx + 8]
	mov	rdi, qword ptr [rcx + 16]
	mov	qword ptr [rsp + 56], rdx
	mov	qword ptr [rsp + 40], rbx
	mov	qword ptr [rsp + 48], rdi
	#APP
	# TEST3 a * b + c -- P a = u1.p; P b = u2.p; S c = u3.d[0];
	#NO_APP
	vmovq	xmm0, rdx
	vmovq	xmm1, rbx
	vmovq	xmm2, rdi
	vmulsd	xmm3, xmm0, xmm1
	vfmadd213sd	xmm0, xmm1, xmm2
	vmovq	rdx, xmm0
	vmovq	qword ptr [rsp + 32], xmm0
	vaddsd	xmm6, xmm3, xmm2
	vmovq	xmm0, rdx
	vucomisd	xmm6, xmm0
	jne	.LBB1_15
	jp	.LBB1_15
# BB#10:
	inc	dword ptr [rax]
	mov	rdx, qword ptr [rcx]
	mov	rbp, qword ptr [rcx + 8]
	mov	rbx, qword ptr [rcx + 16]
	mov	qword ptr [rsp + 56], rdx
	mov	qword ptr [rsp + 40], rbp
	mov	qword ptr [rsp + 48], rbx
	#APP
	# TEST3 a * b + c -- S a = u1.d[0]; S b = u2.d[0]; P c = u3.p;
	#NO_APP
	vmovq	xmm0, rdx
	vmovq	xmm1, rbp
	vmulsd	xmm0, xmm0, xmm1
	vmovq	xmm1, rbx
	vaddsd	xmm6, xmm0, xmm1
	vmovsd	qword ptr [rsp + 32], xmm6
	vucomisd	xmm6, xmm6
	jp	.LBB1_17
# BB#11:
	inc	dword ptr [rax]
	mov	rdx, qword ptr [rcx]
	mov	rbp, qword ptr [rcx + 8]
	mov	rbx, qword ptr [rcx + 16]
	mov	qword ptr [rsp + 56], rdx
	mov	qword ptr [rsp + 40], rbp
	mov	qword ptr [rsp + 48], rbx
	#APP
	# TEST3 a * b + c -- P a = u1.p; S b = u2.d[0]; P c = u3.p;
	#NO_APP
	vmovq	xmm0, rdx
	vmovq	xmm1, rbp
	vmovq	xmm2, rbx
	vmulsd	xmm3, xmm0, xmm1
	vfmadd213sd	xmm0, xmm1, xmm2
	vmovq	rdx, xmm0
	vmovq	qword ptr [rsp + 32], xmm0
	vaddsd	xmm6, xmm2, xmm3
	vmovq	xmm0, rdx
	vucomisd	xmm6, xmm0
	jne	.LBB1_18
	jp	.LBB1_18
# BB#12:
	inc	dword ptr [rax]
	mov	rdx, qword ptr [rcx]
	mov	rbp, qword ptr [rcx + 8]
	mov	rbx, qword ptr [rcx + 16]
	mov	qword ptr [rsp + 56], rdx
	mov	qword ptr [rsp + 40], rbp
	mov	qword ptr [rsp + 48], rbx
	#APP
	# TEST3 a * b + c -- S a = u1.d[0]; P b = u2.p; P c = u3.p;
	#NO_APP
	vmovq	xmm0, rdx
	vmovq	xmm1, rbp
	vmovq	xmm2, rbx
	vmulsd	xmm3, xmm1, xmm0
	vfmadd213sd	xmm0, xmm1, xmm2
	vmovq	rdx, xmm0
	vmovq	qword ptr [rsp + 32], xmm0
	vaddsd	xmm6, xmm2, xmm3
	vmovq	xmm0, rdx
	vucomisd	xmm6, xmm0
	jne	.LBB1_23
	jp	.LBB1_23
# BB#13:
	inc	dword ptr [rax]
	mov	rdx, qword ptr [rcx]
	mov	rbp, qword ptr [rcx + 8]
	mov	rcx, qword ptr [rcx + 16]
	mov	qword ptr [rsp + 56], rdx
	mov	qword ptr [rsp + 40], rbp
	mov	qword ptr [rsp + 48], rcx
	#APP
	# TEST3 a * b + c -- P a = u1.p; P b = u2.p; P c = u3.p;
	#NO_APP
	vmovq	xmm0, rdx
	vmovq	xmm1, rbp
	vmovq	xmm2, rcx
	vmulsd	xmm3, xmm0, xmm1
	vfmadd213sd	xmm0, xmm1, xmm2
	vmovq	rcx, xmm0
	vmovq	qword ptr [rsp + 32], xmm0
	vaddsd	xmm6, xmm3, xmm2
	vmovq	xmm0, rcx
	vucomisd	xmm6, xmm0
	jne	.LBB1_24
	jp	.LBB1_24
# BB#14:
	inc	dword ptr [rax]
	vmovaps	xmm6, xmmword ptr [rsp + 64] # 16-byte Reload
	vmovaps	xmm7, xmmword ptr [rsp + 80] # 16-byte Reload
	vmovaps	xmm8, xmmword ptr [rsp + 96] # 16-byte Reload
	add	rsp, 120
	pop	rbx
	pop	rbp
	pop	rdi
	pop	rsi
	ret
.LBB1_26:
	movabs	rax, _ZN6layoutIN4math6scalarEE1iE
	mov	esi, dword ptr [rax]
	movabs	rcx, _ZSt4cerr
	movabs	rdx, .L.str.1
	call	_ZStlsISt11char_traitsIcEERSt13basic_ostreamIcT_ES5_PKc
	movabs	rdx, _ZTSN4math6scalarE
	mov	rcx, rax
	call	_ZStlsISt11char_traitsIcEERSt13basic_ostreamIcT_ES5_PKc
	movabs	rdx, .L.str.2
	mov	rcx, rax
	call	_ZStlsISt11char_traitsIcEERSt13basic_ostreamIcT_ES5_PKc
	movabs	rdx, .L.str.3
	mov	rcx, rax
	call	_ZStlsISt11char_traitsIcEERSt13basic_ostreamIcT_ES5_PKc
	lea	rdx, [rsp + 56]
	mov	rcx, rax
	call	_ZlsIN4math6scalarEERSoS2_7printerIT_E
	movabs	rdi, .L.str.4
	mov	rcx, rax
	mov	rdx, rdi
	call	_ZStlsISt11char_traitsIcEERSt13basic_ostreamIcT_ES5_PKc
	movabs	rdx, .L.str.5
	mov	rcx, rax
	call	_ZStlsISt11char_traitsIcEERSt13basic_ostreamIcT_ES5_PKc
	lea	rdx, [rsp + 40]
	mov	rcx, rax
	call	_ZlsIN4math6scalarEERSoS2_7printerIT_E
	mov	rcx, rax
	mov	rdx, rdi
	call	_ZStlsISt11char_traitsIcEERSt13basic_ostreamIcT_ES5_PKc
	movabs	rdx, .L.str.6
	mov	rcx, rax
	call	_ZStlsISt11char_traitsIcEERSt13basic_ostreamIcT_ES5_PKc
	movabs	rdx, .L.str.7
	mov	rcx, rax
	call	_ZStlsISt11char_traitsIcEERSt13basic_ostreamIcT_ES5_PKc
	mov	rcx, rax
	mov	edx, esi
	call	_ZNSolsEi
	movabs	rdx, .L.str.8
	mov	rcx, rax
	call	_ZStlsISt11char_traitsIcEERSt13basic_ostreamIcT_ES5_PKc
	mov	rcx, rax
	vmovapd	xmm1, xmm7
	call	_ZNSo9_M_insertIdEERSoT_
	movabs	rdx, .L.str.9
	mov	rcx, rax
	call	_ZStlsISt11char_traitsIcEERSt13basic_ostreamIcT_ES5_PKc
	vmovsd	xmm1, qword ptr [rsp + 40] # xmm1 = mem[0],zero
	jmp	.LBB1_4
.LBB1_2:
	movabs	rax, _ZN6layoutIN4math6scalarEE1iE
	mov	esi, dword ptr [rax]
	movabs	rcx, _ZSt4cerr
	movabs	rdx, .L.str.1
	call	_ZStlsISt11char_traitsIcEERSt13basic_ostreamIcT_ES5_PKc
	movabs	rdi, _ZTSN4math6scalarE
	mov	rcx, rax
	mov	rdx, rdi
	call	_ZStlsISt11char_traitsIcEERSt13basic_ostreamIcT_ES5_PKc
	movabs	rdx, .L.str.2
	mov	rcx, rax
	call	_ZStlsISt11char_traitsIcEERSt13basic_ostreamIcT_ES5_PKc
	mov	rcx, rax
	mov	rdx, rdi
	call	_ZStlsISt11char_traitsIcEERSt13basic_ostreamIcT_ES5_PKc
	movabs	rdx, .L.str.10
	mov	rcx, rax
	call	_ZStlsISt11char_traitsIcEERSt13basic_ostreamIcT_ES5_PKc
	movabs	rdx, .L.str.3
	mov	rcx, rax
	call	_ZStlsISt11char_traitsIcEERSt13basic_ostreamIcT_ES5_PKc
	lea	rdx, [rsp + 56]
	mov	rcx, rax
	call	_ZlsIN4math6scalarEERSoS2_7printerIT_E
	movabs	rdi, .L.str.4
	mov	rcx, rax
	mov	rdx, rdi
	call	_ZStlsISt11char_traitsIcEERSt13basic_ostreamIcT_ES5_PKc
	movabs	rdx, .L.str.11
	mov	rcx, rax
	call	_ZStlsISt11char_traitsIcEERSt13basic_ostreamIcT_ES5_PKc
	lea	rdx, [rsp + 40]
	mov	rcx, rax
	call	_ZlsIN4math6scalarEERSoS2_7printerIT_E
	mov	rcx, rax
	mov	rdx, rdi
	call	_ZStlsISt11char_traitsIcEERSt13basic_ostreamIcT_ES5_PKc
	movabs	rdx, .L.str.5
	mov	rcx, rax
	call	_ZStlsISt11char_traitsIcEERSt13basic_ostreamIcT_ES5_PKc
	lea	rdx, [rsp + 48]
	mov	rcx, rax
	call	_ZlsIN4math6scalarEERSoS2_7printerIT_E
	mov	rcx, rax
	mov	rdx, rdi
	call	_ZStlsISt11char_traitsIcEERSt13basic_ostreamIcT_ES5_PKc
	movabs	rdx, .L.str.12
	mov	rcx, rax
	call	_ZStlsISt11char_traitsIcEERSt13basic_ostreamIcT_ES5_PKc
	movabs	rdx, .L.str.7
	mov	rcx, rax
	call	_ZStlsISt11char_traitsIcEERSt13basic_ostreamIcT_ES5_PKc
	mov	rcx, rax
	mov	edx, esi
	call	_ZNSolsEi
	movabs	rdx, .L.str.8
	mov	rcx, rax
	call	_ZStlsISt11char_traitsIcEERSt13basic_ostreamIcT_ES5_PKc
	mov	rcx, rax
	vmovapd	xmm1, xmm6
	jmp	.LBB1_3
.LBB1_6:
	movabs	rax, _ZN6layoutIN4math6scalarEE1iE
	mov	esi, dword ptr [rax]
	movabs	rcx, _ZSt4cerr
	movabs	rdx, .L.str.1
	call	_ZStlsISt11char_traitsIcEERSt13basic_ostreamIcT_ES5_PKc
	movabs	rdi, _ZTSN4math6scalarE
	mov	rcx, rax
	mov	rdx, rdi
	call	_ZStlsISt11char_traitsIcEERSt13basic_ostreamIcT_ES5_PKc
	movabs	rdx, .L.str.2
	mov	rcx, rax
	call	_ZStlsISt11char_traitsIcEERSt13basic_ostreamIcT_ES5_PKc
	mov	rcx, rax
	mov	rdx, rdi
	call	_ZStlsISt11char_traitsIcEERSt13basic_ostreamIcT_ES5_PKc
	movabs	rdx, .L.str.10
	mov	rcx, rax
	call	_ZStlsISt11char_traitsIcEERSt13basic_ostreamIcT_ES5_PKc
	movabs	rdx, .L.str.3
	mov	rcx, rax
	call	_ZStlsISt11char_traitsIcEERSt13basic_ostreamIcT_ES5_PKc
	lea	rdx, [rsp + 56]
	mov	rcx, rax
	call	_ZlsIN4math6scalarEERSoS2_7printerIT_E
	movabs	rdi, .L.str.4
	mov	rcx, rax
	mov	rdx, rdi
	call	_ZStlsISt11char_traitsIcEERSt13basic_ostreamIcT_ES5_PKc
	movabs	rdx, .L.str.11
	mov	rcx, rax
	call	_ZStlsISt11char_traitsIcEERSt13basic_ostreamIcT_ES5_PKc
	lea	rdx, [rsp + 40]
	mov	rcx, rax
	call	_ZlsIN4math6scalarEERSoS2_7printerIT_E
	mov	rcx, rax
	mov	rdx, rdi
	call	_ZStlsISt11char_traitsIcEERSt13basic_ostreamIcT_ES5_PKc
	movabs	rdx, .L.str.5
	mov	rcx, rax
	call	_ZStlsISt11char_traitsIcEERSt13basic_ostreamIcT_ES5_PKc
	lea	rdx, [rsp + 48]
	mov	rcx, rax
	call	_ZlsIN4math6scalarEERSoS2_7printerIT_E
	mov	rcx, rax
	mov	rdx, rdi
	call	_ZStlsISt11char_traitsIcEERSt13basic_ostreamIcT_ES5_PKc
	movabs	rdx, .L.str.13
	mov	rcx, rax
	call	_ZStlsISt11char_traitsIcEERSt13basic_ostreamIcT_ES5_PKc
	movabs	rdx, .L.str.7
	mov	rcx, rax
	call	_ZStlsISt11char_traitsIcEERSt13basic_ostreamIcT_ES5_PKc
	mov	rcx, rax
	mov	edx, esi
	call	_ZNSolsEi
	movabs	rdx, .L.str.8
	mov	rcx, rax
	call	_ZStlsISt11char_traitsIcEERSt13basic_ostreamIcT_ES5_PKc
	mov	rcx, rax
	vmovapd	xmm1, xmm8
.LBB1_3:
	call	_ZNSo9_M_insertIdEERSoT_
	movabs	rdx, .L.str.9
	mov	rcx, rax
	call	_ZStlsISt11char_traitsIcEERSt13basic_ostreamIcT_ES5_PKc
	vmovsd	xmm1, qword ptr [rsp + 48] # xmm1 = mem[0],zero
	jmp	.LBB1_4
.LBB1_27:
	movabs	rax, _ZN6layoutIN4math6scalarEE1iE
	mov	ebp, dword ptr [rax]
	movabs	rcx, _ZSt4cerr
	movabs	rdx, .L.str.1
	call	_ZStlsISt11char_traitsIcEERSt13basic_ostreamIcT_ES5_PKc
	movabs	rdx, _ZTSN4math6scalarE
	mov	rcx, rax
	call	_ZStlsISt11char_traitsIcEERSt13basic_ostreamIcT_ES5_PKc
	movabs	rdx, .L.str.2
	mov	rcx, rax
	call	_ZStlsISt11char_traitsIcEERSt13basic_ostreamIcT_ES5_PKc
	movabs	rcx, _ZTId
	mov	rdi, qword ptr [rcx + 8]
	lea	rsi, [rdi + 1]
	cmp	byte ptr [rdi], 42
	mov	rdx, rdi
	cmove	rdx, rsi
	mov	rcx, rax
	call	_ZStlsISt11char_traitsIcEERSt13basic_ostreamIcT_ES5_PKc
	movabs	rbx, .L.str.10
	mov	rcx, rax
	mov	rdx, rbx
	call	_ZStlsISt11char_traitsIcEERSt13basic_ostreamIcT_ES5_PKc
	cmp	byte ptr [rdi], 42
	cmove	rdi, rsi
	mov	rcx, rax
	mov	rdx, rdi
	call	_ZStlsISt11char_traitsIcEERSt13basic_ostreamIcT_ES5_PKc
	mov	rcx, rax
	mov	rdx, rbx
	call	_ZStlsISt11char_traitsIcEERSt13basic_ostreamIcT_ES5_PKc
	movabs	rdx, .L.str.3
	mov	rcx, rax
	call	_ZStlsISt11char_traitsIcEERSt13basic_ostreamIcT_ES5_PKc
	lea	rdx, [rsp + 56]
	mov	rcx, rax
	call	_ZlsIN4math6scalarEERSoS2_7printerIT_E
	movabs	rdi, .L.str.4
	mov	rcx, rax
	mov	rdx, rdi
	call	_ZStlsISt11char_traitsIcEERSt13basic_ostreamIcT_ES5_PKc
	movabs	rbx, .L.str.11
	mov	rcx, rax
	mov	rdx, rbx
	call	_ZStlsISt11char_traitsIcEERSt13basic_ostreamIcT_ES5_PKc
	lea	rdx, [rsp + 40]
	mov	rcx, rax
	call	_ZlsIdERSoS0_7printerIT_E
	mov	rcx, rax
	mov	rdx, rdi
	call	_ZStlsISt11char_traitsIcEERSt13basic_ostreamIcT_ES5_PKc
	mov	rcx, rax
	mov	rdx, rbx
	call	_ZStlsISt11char_traitsIcEERSt13basic_ostreamIcT_ES5_PKc
	lea	rdx, [rsp + 48]
	mov	rcx, rax
	call	_ZlsIdERSoS0_7printerIT_E
	mov	rcx, rax
	mov	rdx, rdi
	call	_ZStlsISt11char_traitsIcEERSt13basic_ostreamIcT_ES5_PKc
	movabs	rdx, .L.str.5
	mov	rcx, rax
	call	_ZStlsISt11char_traitsIcEERSt13basic_ostreamIcT_ES5_PKc
	lea	rdx, [rsp + 32]
	mov	rcx, rax
	call	_ZlsIN4math6scalarEERSoS2_7printerIT_E
	mov	rcx, rax
	mov	rdx, rdi
	call	_ZStlsISt11char_traitsIcEERSt13basic_ostreamIcT_ES5_PKc
	movabs	rdx, .L.str.14
	mov	rcx, rax
	call	_ZStlsISt11char_traitsIcEERSt13basic_ostreamIcT_ES5_PKc
	movabs	rdx, .L.str.7
	mov	rcx, rax
	call	_ZStlsISt11char_traitsIcEERSt13basic_ostreamIcT_ES5_PKc
	mov	rcx, rax
	mov	edx, ebp
	jmp	.LBB1_22
.LBB1_28:
	movabs	rax, _ZN6layoutIN4math6scalarEE1iE
	mov	esi, dword ptr [rax]
	movabs	rcx, _ZSt4cerr
	movabs	rdx, .L.str.1
	call	_ZStlsISt11char_traitsIcEERSt13basic_ostreamIcT_ES5_PKc
	movabs	rcx, _ZTId
	mov	rdi, qword ptr [rcx + 8]
	lea	rbp, [rdi + 1]
	cmp	byte ptr [rdi], 42
	mov	rdx, rdi
	cmove	rdx, rbp
	mov	rcx, rax
	call	_ZStlsISt11char_traitsIcEERSt13basic_ostreamIcT_ES5_PKc
	movabs	rdx, .L.str.2
	mov	rcx, rax
	call	_ZStlsISt11char_traitsIcEERSt13basic_ostreamIcT_ES5_PKc
	movabs	rdx, _ZTSN4math6scalarE
	mov	rcx, rax
	call	_ZStlsISt11char_traitsIcEERSt13basic_ostreamIcT_ES5_PKc
	movabs	rbx, .L.str.10
	mov	rcx, rax
	mov	rdx, rbx
	call	_ZStlsISt11char_traitsIcEERSt13basic_ostreamIcT_ES5_PKc
	cmp	byte ptr [rdi], 42
	cmove	rdi, rbp
	mov	rcx, rax
	mov	rdx, rdi
	call	_ZStlsISt11char_traitsIcEERSt13basic_ostreamIcT_ES5_PKc
	mov	rcx, rax
	mov	rdx, rbx
	call	_ZStlsISt11char_traitsIcEERSt13basic_ostreamIcT_ES5_PKc
	movabs	rdx, .L.str.3
	mov	rcx, rax
	call	_ZStlsISt11char_traitsIcEERSt13basic_ostreamIcT_ES5_PKc
	lea	rdx, [rsp + 56]
	mov	rcx, rax
	call	_ZlsIdERSoS0_7printerIT_E
	jmp	.LBB1_16
.LBB1_15:
	movabs	rax, _ZN6layoutIN4math6scalarEE1iE
	mov	esi, dword ptr [rax]
	movabs	rcx, _ZSt4cerr
	movabs	rdx, .L.str.1
	call	_ZStlsISt11char_traitsIcEERSt13basic_ostreamIcT_ES5_PKc
	movabs	rdi, _ZTSN4math6scalarE
	mov	rcx, rax
	mov	rdx, rdi
	call	_ZStlsISt11char_traitsIcEERSt13basic_ostreamIcT_ES5_PKc
	movabs	rdx, .L.str.2
	mov	rcx, rax
	call	_ZStlsISt11char_traitsIcEERSt13basic_ostreamIcT_ES5_PKc
	mov	rcx, rax
	mov	rdx, rdi
	call	_ZStlsISt11char_traitsIcEERSt13basic_ostreamIcT_ES5_PKc
	movabs	rdi, .L.str.10
	mov	rcx, rax
	mov	rdx, rdi
	call	_ZStlsISt11char_traitsIcEERSt13basic_ostreamIcT_ES5_PKc
	movabs	rcx, _ZTId
	mov	rcx, qword ptr [rcx + 8]
	lea	rdx, [rcx + 1]
	cmp	byte ptr [rcx], 42
	cmovne	rdx, rcx
	mov	rcx, rax
	call	_ZStlsISt11char_traitsIcEERSt13basic_ostreamIcT_ES5_PKc
	mov	rcx, rax
	mov	rdx, rdi
	call	_ZStlsISt11char_traitsIcEERSt13basic_ostreamIcT_ES5_PKc
	movabs	rdx, .L.str.3
	mov	rcx, rax
	call	_ZStlsISt11char_traitsIcEERSt13basic_ostreamIcT_ES5_PKc
	lea	rdx, [rsp + 56]
	mov	rcx, rax
	call	_ZlsIN4math6scalarEERSoS2_7printerIT_E
.LBB1_16:
	movabs	rdi, .L.str.4
	mov	rcx, rax
	mov	rdx, rdi
	call	_ZStlsISt11char_traitsIcEERSt13basic_ostreamIcT_ES5_PKc
	movabs	rbx, .L.str.11
	mov	rcx, rax
	mov	rdx, rbx
	call	_ZStlsISt11char_traitsIcEERSt13basic_ostreamIcT_ES5_PKc
	lea	rdx, [rsp + 40]
	mov	rcx, rax
	call	_ZlsIN4math6scalarEERSoS2_7printerIT_E
	mov	rcx, rax
	mov	rdx, rdi
	call	_ZStlsISt11char_traitsIcEERSt13basic_ostreamIcT_ES5_PKc
	mov	rcx, rax
	mov	rdx, rbx
	call	_ZStlsISt11char_traitsIcEERSt13basic_ostreamIcT_ES5_PKc
	lea	rdx, [rsp + 48]
	mov	rcx, rax
	call	_ZlsIdERSoS0_7printerIT_E
	jmp	.LBB1_21
.LBB1_17:
	movabs	rax, _ZN6layoutIN4math6scalarEE1iE
	mov	esi, dword ptr [rax]
	movabs	rcx, _ZSt4cerr
	movabs	rdx, .L.str.1
	call	_ZStlsISt11char_traitsIcEERSt13basic_ostreamIcT_ES5_PKc
	movabs	rcx, _ZTId
	mov	rdi, qword ptr [rcx + 8]
	lea	rbx, [rdi + 1]
	cmp	byte ptr [rdi], 42
	mov	rdx, rdi
	cmove	rdx, rbx
	mov	rcx, rax
	call	_ZStlsISt11char_traitsIcEERSt13basic_ostreamIcT_ES5_PKc
	movabs	rdx, .L.str.2
	mov	rcx, rax
	call	_ZStlsISt11char_traitsIcEERSt13basic_ostreamIcT_ES5_PKc
	cmp	byte ptr [rdi], 42
	cmove	rdi, rbx
	mov	rcx, rax
	mov	rdx, rdi
	call	_ZStlsISt11char_traitsIcEERSt13basic_ostreamIcT_ES5_PKc
	movabs	rdi, .L.str.10
	mov	rcx, rax
	mov	rdx, rdi
	call	_ZStlsISt11char_traitsIcEERSt13basic_ostreamIcT_ES5_PKc
	movabs	rdx, _ZTSN4math6scalarE
	mov	rcx, rax
	call	_ZStlsISt11char_traitsIcEERSt13basic_ostreamIcT_ES5_PKc
	mov	rcx, rax
	mov	rdx, rdi
	call	_ZStlsISt11char_traitsIcEERSt13basic_ostreamIcT_ES5_PKc
	movabs	rdx, .L.str.3
	mov	rcx, rax
	call	_ZStlsISt11char_traitsIcEERSt13basic_ostreamIcT_ES5_PKc
	lea	rdx, [rsp + 56]
	mov	rcx, rax
	call	_ZlsIdERSoS0_7printerIT_E
	jmp	.LBB1_19
.LBB1_18:
	movabs	rax, _ZN6layoutIN4math6scalarEE1iE
	mov	esi, dword ptr [rax]
	movabs	rcx, _ZSt4cerr
	movabs	rdx, .L.str.1
	call	_ZStlsISt11char_traitsIcEERSt13basic_ostreamIcT_ES5_PKc
	movabs	rdi, _ZTSN4math6scalarE
	mov	rcx, rax
	mov	rdx, rdi
	call	_ZStlsISt11char_traitsIcEERSt13basic_ostreamIcT_ES5_PKc
	movabs	rdx, .L.str.2
	mov	rcx, rax
	call	_ZStlsISt11char_traitsIcEERSt13basic_ostreamIcT_ES5_PKc
	movabs	rcx, _ZTId
	mov	rcx, qword ptr [rcx + 8]
	lea	rdx, [rcx + 1]
	cmp	byte ptr [rcx], 42
	cmovne	rdx, rcx
	mov	rcx, rax
	call	_ZStlsISt11char_traitsIcEERSt13basic_ostreamIcT_ES5_PKc
	movabs	rbx, .L.str.10
	mov	rcx, rax
	mov	rdx, rbx
	call	_ZStlsISt11char_traitsIcEERSt13basic_ostreamIcT_ES5_PKc
	mov	rcx, rax
	mov	rdx, rdi
	call	_ZStlsISt11char_traitsIcEERSt13basic_ostreamIcT_ES5_PKc
	mov	rcx, rax
	mov	rdx, rbx
	call	_ZStlsISt11char_traitsIcEERSt13basic_ostreamIcT_ES5_PKc
	movabs	rdx, .L.str.3
	mov	rcx, rax
	call	_ZStlsISt11char_traitsIcEERSt13basic_ostreamIcT_ES5_PKc
	lea	rdx, [rsp + 56]
	mov	rcx, rax
	call	_ZlsIN4math6scalarEERSoS2_7printerIT_E
.LBB1_19:
	movabs	rdi, .L.str.4
	mov	rcx, rax
	mov	rdx, rdi
	call	_ZStlsISt11char_traitsIcEERSt13basic_ostreamIcT_ES5_PKc
	movabs	rbx, .L.str.11
	mov	rcx, rax
	mov	rdx, rbx
	call	_ZStlsISt11char_traitsIcEERSt13basic_ostreamIcT_ES5_PKc
	lea	rdx, [rsp + 40]
	mov	rcx, rax
	call	_ZlsIdERSoS0_7printerIT_E
	jmp	.LBB1_20
.LBB1_23:
	movabs	rax, _ZN6layoutIN4math6scalarEE1iE
	mov	esi, dword ptr [rax]
	movabs	rcx, _ZSt4cerr
	movabs	rdx, .L.str.1
	call	_ZStlsISt11char_traitsIcEERSt13basic_ostreamIcT_ES5_PKc
	movabs	rcx, _ZTId
	mov	rcx, qword ptr [rcx + 8]
	lea	rdx, [rcx + 1]
	cmp	byte ptr [rcx], 42
	cmovne	rdx, rcx
	mov	rcx, rax
	call	_ZStlsISt11char_traitsIcEERSt13basic_ostreamIcT_ES5_PKc
	movabs	rdx, .L.str.2
	mov	rcx, rax
	call	_ZStlsISt11char_traitsIcEERSt13basic_ostreamIcT_ES5_PKc
	movabs	rdi, _ZTSN4math6scalarE
	mov	rcx, rax
	mov	rdx, rdi
	call	_ZStlsISt11char_traitsIcEERSt13basic_ostreamIcT_ES5_PKc
	movabs	rbx, .L.str.10
	mov	rcx, rax
	mov	rdx, rbx
	call	_ZStlsISt11char_traitsIcEERSt13basic_ostreamIcT_ES5_PKc
	mov	rcx, rax
	mov	rdx, rdi
	call	_ZStlsISt11char_traitsIcEERSt13basic_ostreamIcT_ES5_PKc
	mov	rcx, rax
	mov	rdx, rbx
	call	_ZStlsISt11char_traitsIcEERSt13basic_ostreamIcT_ES5_PKc
	movabs	rdx, .L.str.3
	mov	rcx, rax
	call	_ZStlsISt11char_traitsIcEERSt13basic_ostreamIcT_ES5_PKc
	lea	rdx, [rsp + 56]
	mov	rcx, rax
	call	_ZlsIdERSoS0_7printerIT_E
	jmp	.LBB1_25
.LBB1_24:
	movabs	rax, _ZN6layoutIN4math6scalarEE1iE
	mov	esi, dword ptr [rax]
	movabs	rcx, _ZSt4cerr
	movabs	rdx, .L.str.1
	call	_ZStlsISt11char_traitsIcEERSt13basic_ostreamIcT_ES5_PKc
	movabs	rdi, _ZTSN4math6scalarE
	mov	rcx, rax
	mov	rdx, rdi
	call	_ZStlsISt11char_traitsIcEERSt13basic_ostreamIcT_ES5_PKc
	movabs	rdx, .L.str.2
	mov	rcx, rax
	call	_ZStlsISt11char_traitsIcEERSt13basic_ostreamIcT_ES5_PKc
	mov	rcx, rax
	mov	rdx, rdi
	call	_ZStlsISt11char_traitsIcEERSt13basic_ostreamIcT_ES5_PKc
	movabs	rbx, .L.str.10
	mov	rcx, rax
	mov	rdx, rbx
	call	_ZStlsISt11char_traitsIcEERSt13basic_ostreamIcT_ES5_PKc
	mov	rcx, rax
	mov	rdx, rdi
	call	_ZStlsISt11char_traitsIcEERSt13basic_ostreamIcT_ES5_PKc
	mov	rcx, rax
	mov	rdx, rbx
	call	_ZStlsISt11char_traitsIcEERSt13basic_ostreamIcT_ES5_PKc
	movabs	rdx, .L.str.3
	mov	rcx, rax
	call	_ZStlsISt11char_traitsIcEERSt13basic_ostreamIcT_ES5_PKc
	lea	rdx, [rsp + 56]
	mov	rcx, rax
	call	_ZlsIN4math6scalarEERSoS2_7printerIT_E
.LBB1_25:
	movabs	rdi, .L.str.4
	mov	rcx, rax
	mov	rdx, rdi
	call	_ZStlsISt11char_traitsIcEERSt13basic_ostreamIcT_ES5_PKc
	movabs	rbx, .L.str.11
	mov	rcx, rax
	mov	rdx, rbx
	call	_ZStlsISt11char_traitsIcEERSt13basic_ostreamIcT_ES5_PKc
	lea	rdx, [rsp + 40]
	mov	rcx, rax
	call	_ZlsIN4math6scalarEERSoS2_7printerIT_E
.LBB1_20:
	mov	rcx, rax
	mov	rdx, rdi
	call	_ZStlsISt11char_traitsIcEERSt13basic_ostreamIcT_ES5_PKc
	mov	rcx, rax
	mov	rdx, rbx
	call	_ZStlsISt11char_traitsIcEERSt13basic_ostreamIcT_ES5_PKc
	lea	rdx, [rsp + 48]
	mov	rcx, rax
	call	_ZlsIN4math6scalarEERSoS2_7printerIT_E
.LBB1_21:
	mov	rcx, rax
	mov	rdx, rdi
	call	_ZStlsISt11char_traitsIcEERSt13basic_ostreamIcT_ES5_PKc
	movabs	rdx, .L.str.5
	mov	rcx, rax
	call	_ZStlsISt11char_traitsIcEERSt13basic_ostreamIcT_ES5_PKc
	lea	rdx, [rsp + 32]
	mov	rcx, rax
	call	_ZlsIN4math6scalarEERSoS2_7printerIT_E
	mov	rcx, rax
	mov	rdx, rdi
	call	_ZStlsISt11char_traitsIcEERSt13basic_ostreamIcT_ES5_PKc
	movabs	rdx, .L.str.14
	mov	rcx, rax
	call	_ZStlsISt11char_traitsIcEERSt13basic_ostreamIcT_ES5_PKc
	movabs	rdx, .L.str.7
	mov	rcx, rax
	call	_ZStlsISt11char_traitsIcEERSt13basic_ostreamIcT_ES5_PKc
	mov	rcx, rax
	mov	edx, esi
.LBB1_22:
	call	_ZNSolsEi
	movabs	rdx, .L.str.8
	mov	rcx, rax
	call	_ZStlsISt11char_traitsIcEERSt13basic_ostreamIcT_ES5_PKc
	mov	rcx, rax
	vmovapd	xmm1, xmm6
	call	_ZNSo9_M_insertIdEERSoT_
	movabs	rdx, .L.str.9
	mov	rcx, rax
	call	_ZStlsISt11char_traitsIcEERSt13basic_ostreamIcT_ES5_PKc
	vmovsd	xmm1, qword ptr [rsp + 32] # xmm1 = mem[0],zero
.LBB1_4:
	mov	rcx, rax
	call	_ZNSo9_M_insertIdEERSoT_
	mov	rcx, rax
	mov	rdx, rdi
	call	_ZStlsISt11char_traitsIcEERSt13basic_ostreamIcT_ES5_PKc
	mov	ecx, 1
	call	exit
	ud2
	.seh_handlerdata
	.section	.text,"xr",discard,_Z12test_pack_spIdN4math6scalarEEvPKT0_
.Lcfi15:
	.seh_endproc

	.def	 main;
	.scl	2;
	.type	32;
	.endef
	.text
	.globl	main
	.p2align	4, 0x90
main:                                   # @main
.Lcfi16:
.seh_proc main
# BB#0:
	push	rbp
.Lcfi17:
	.seh_pushreg 5
	push	rsi
.Lcfi18:
	.seh_pushreg 6
	push	rdi
.Lcfi19:
	.seh_pushreg 7
	push	rbx
.Lcfi20:
	.seh_pushreg 3
	sub	rsp, 1368
.Lcfi21:
	.seh_stackalloc 1368
	lea	rbp, [rsp + 128]
.Lcfi22:
	.seh_setframe 5, 128
.Lcfi23:
	.seh_endprologue
	and	rsp, -32
	call	__main
	mov	dword ptr [rsp + 48], 42
	movabs	rax, 47244640246
	mov	qword ptr [rsp + 56], rax
	xor	ebx, ebx
	lea	rsi, [rsp + 48]
	lea	rdi, [rsp + 56]
	.p2align	4, 0x90
.LBB2_1:                                # =>This Inner Loop Header: Depth=1
	mov	rcx, rdi
	mov	rdx, rsi
	mov	r8, rdi
	call	_ZNSt24uniform_int_distributionIiEclISt26linear_congruential_engineIjLj16807ELj0ELj2147483647EEEEiRT_RKNS0_10param_typeE
	vcvtsi2sd	xmm0, xmm1, eax
	vmovsd	qword ptr [rsp + 8*rbx + 64], xmm0
	inc	rbx
	cmp	rbx, 160
	jne	.LBB2_1
# BB#2:
	xor	edi, edi
	.p2align	4, 0x90
.LBB2_3:                                # =>This Inner Loop Header: Depth=1
	lea	rsi, [rsp + rdi + 64]
	mov	rcx, rsi
	call	_Z12test_pack_spIdN4math6scalarEEvPKT0_
	mov	rcx, rsi
	call	_Z12test_pack_spIdN4math6pack2dEEvPKT0_
	mov	rcx, rsi
	call	_Z12test_pack_spIN4math6scalarENS0_6pack2dEEvPKT0_
	mov	rcx, rsi
	call	_Z12test_pack_spIdN4math6pack4dEEvPKT0_
	mov	rcx, rsi
	call	_Z12test_pack_spIN4math6scalarENS0_6pack4dEEvPKT0_
	mov	rcx, rsi
	call	_Z12test_pack_spId1XEvPKT0_
	mov	rcx, rsi
	call	_Z12test_pack_spIN4math6scalarE1XEvPKT0_
	mov	rcx, rsi
	call	_Z12test_pack_spId1YEvPKT0_
	mov	rcx, rsi
	call	_Z12test_pack_spIN4math6scalarE1YEvPKT0_
	mov	rcx, rsi
	call	_Z12test_pack_spId1NEvPKT0_
	mov	rcx, rsi
	call	_Z12test_pack_spIN4math6scalarE1NEvPKT0_
	sub	rdi, -128
	cmp	rdi, 896
	jne	.LBB2_3
# BB#4:
	movabs	rax, count
	mov	edx, dword ptr [rax]
	movabs	rcx, _ZSt4cout
	call	_ZNSolsEi
	movabs	rdx, .L.str
	mov	r8d, 15
	mov	rcx, rax
	call	_ZSt16__ostream_insertIcSt11char_traitsIcEERSt13basic_ostreamIT_T0_ES6_PKS3_l
	xor	eax, eax
	lea	rsp, [rbp + 1240]
	pop	rbx
	pop	rdi
	pop	rsi
	pop	rbp
	ret
	.seh_handlerdata
	.text
.Lcfi24:
	.seh_endproc

	.def	 _ZlsIN4math6scalarEERSoS2_7printerIT_E;
	.scl	2;
	.type	32;
	.endef
	.section	.text,"xr",discard,_ZlsIN4math6scalarEERSoS2_7printerIT_E
	.globl	_ZlsIN4math6scalarEERSoS2_7printerIT_E
	.p2align	4, 0x90
_ZlsIN4math6scalarEERSoS2_7printerIT_E: # @_ZlsIN4math6scalarEERSoS2_7printerIT_E
.Lcfi25:
.seh_proc _ZlsIN4math6scalarEERSoS2_7printerIT_E
# BB#0:
	push	rsi
.Lcfi26:
	.seh_pushreg 6
	sub	rsp, 32
.Lcfi27:
	.seh_stackalloc 32
.Lcfi28:
	.seh_endprologue
	mov	rsi, rcx
	vmovsd	xmm1, qword ptr [rdx]   # xmm1 = mem[0],zero
	mov	rax, qword ptr [rsi]
	mov	rax, qword ptr [rax - 24]
	mov	qword ptr [rsi + rax + 16], 4
	call	_ZNSo9_M_insertIdEERSoT_
	mov	rax, rsi
	add	rsp, 32
	pop	rsi
	ret
	.seh_handlerdata
	.section	.text,"xr",discard,_ZlsIN4math6scalarEERSoS2_7printerIT_E
.Lcfi29:
	.seh_endproc

	.def	 _ZlsIdERSoS0_7printerIT_E;
	.scl	2;
	.type	32;
	.endef
	.section	.text,"xr",discard,_ZlsIdERSoS0_7printerIT_E
	.globl	_ZlsIdERSoS0_7printerIT_E
	.p2align	4, 0x90
_ZlsIdERSoS0_7printerIT_E:              # @_ZlsIdERSoS0_7printerIT_E
.Lcfi30:
.seh_proc _ZlsIdERSoS0_7printerIT_E
# BB#0:
	push	rsi
.Lcfi31:
	.seh_pushreg 6
	sub	rsp, 32
.Lcfi32:
	.seh_stackalloc 32
.Lcfi33:
	.seh_endprologue
	mov	rsi, rcx
	vmovsd	xmm1, qword ptr [rdx]   # xmm1 = mem[0],zero
	mov	rax, qword ptr [rsi]
	mov	rax, qword ptr [rax - 24]
	mov	qword ptr [rsi + rax + 16], 4
	call	_ZNSo9_M_insertIdEERSoT_
	mov	rax, rsi
	add	rsp, 32
	pop	rsi
	ret
	.seh_handlerdata
	.section	.text,"xr",discard,_ZlsIdERSoS0_7printerIT_E
.Lcfi34:
	.seh_endproc

	.def	 _Z12test_pack_spIdN4math6pack2dEEvPKT0_;
	.scl	2;
	.type	32;
	.endef
	.section	.text,"xr",discard,_Z12test_pack_spIdN4math6pack2dEEvPKT0_
	.globl	_Z12test_pack_spIdN4math6pack2dEEvPKT0_
	.p2align	4, 0x90
_Z12test_pack_spIdN4math6pack2dEEvPKT0_: # @_Z12test_pack_spIdN4math6pack2dEEvPKT0_
.Lcfi35:
.seh_proc _Z12test_pack_spIdN4math6pack2dEEvPKT0_
# BB#0:
	push	r15
.Lcfi36:
	.seh_pushreg 15
	push	r14
.Lcfi37:
	.seh_pushreg 14
	push	rsi
.Lcfi38:
	.seh_pushreg 6
	push	rdi
.Lcfi39:
	.seh_pushreg 7
	push	rbp
.Lcfi40:
	.seh_pushreg 5
	push	rbx
.Lcfi41:
	.seh_pushreg 3
	sub	rsp, 168
.Lcfi42:
	.seh_stackalloc 168
	vmovaps	xmmword ptr [rsp + 144], xmm6 # 16-byte Spill
.Lcfi43:
	.seh_savexmm 6, 144
.Lcfi44:
	.seh_endprologue
	vmovaps	xmm0, xmmword ptr [rcx]
	vmovaps	xmmword ptr [rsp + 48], xmm0
	vmovaps	xmm0, xmmword ptr [rcx]
	vmovaps	xmmword ptr [rsp + 64], xmm0
	vmovapd	xmm0, xmmword ptr [rcx]
	vmovapd	xmmword ptr [rsp + 32], xmm0
	movabs	r9, _ZN6layoutIN4math6pack2dEE1iE
	mov	r15d, dword ptr [r9]
	movsxd	rsi, r15d
	vmovsd	xmm6, qword ptr [rsp + 8*rsi + 48] # xmm6 = mem[0],zero
	vucomisd	xmm6, qword ptr [rsp + 8*rsi + 32]
	jne	.LBB5_1
	jp	.LBB5_1
# BB#2:
	mov	r14d, dword ptr [r9 + 4]
	movsxd	rbp, r14d
	vmovsd	xmm6, qword ptr [rsp + 8*rbp + 48] # xmm6 = mem[0],zero
	vucomisd	xmm6, qword ptr [rsp + 8*rbp + 32]
	jne	.LBB5_3
	jp	.LBB5_3
# BB#67:
	movabs	r8, count
	mov	edi, dword ptr [r8]
	lea	eax, [rdi + 1]
	mov	dword ptr [r8], eax
	vmovaps	xmm0, xmmword ptr [rcx]
	vmovaps	xmmword ptr [rsp + 48], xmm0
	vmovaps	xmm0, xmmword ptr [rcx + 16]
	vmovaps	xmmword ptr [rsp + 64], xmm0
	vmovaps	xmm0, xmmword ptr [rcx]
	vmovaps	xmmword ptr [rsp + 32], xmm0
	vmovaps	xmm0, xmmword ptr [rcx + 16]
	vmovaps	xmmword ptr [rsp + 96], xmm0
	vmovapd	xmm0, xmmword ptr [rsp + 32]
	vmulpd	xmm0, xmm0, xmmword ptr [rsp + 96]
	vmovapd	xmmword ptr [rsp + 80], xmm0
	vmovsd	xmm0, qword ptr [rsp + 8*rsi + 48] # xmm0 = mem[0],zero
	vmulsd	xmm6, xmm0, qword ptr [rsp + 8*rsi + 64]
	vucomisd	xmm6, qword ptr [rsp + 8*rsi + 80]
	jne	.LBB5_68
	jp	.LBB5_68
# BB#5:
	vmovsd	xmm0, qword ptr [rsp + 8*rbp + 48] # xmm0 = mem[0],zero
	vmulsd	xmm6, xmm0, qword ptr [rsp + 8*rbp + 64]
	vucomisd	xmm6, qword ptr [rsp + 8*rbp + 80]
	jne	.LBB5_6
	jp	.LBB5_6
# BB#65:
	lea	rbx, [rcx + 16]
	lea	eax, [rdi + 2]
	mov	dword ptr [r8], eax
	mov	r10, qword ptr [rcx]
	vmovaps	xmm0, xmmword ptr [rbx]
	vmovaps	xmmword ptr [rsp + 48], xmm0
	mov	qword ptr [rsp + 96], r10
	vmovaps	xmm0, xmmword ptr [rbx]
	vmovaps	xmmword ptr [rsp + 64], xmm0
	vmovq	xmm2, r10
	vmovddup	xmm3, xmm2      # xmm3 = xmm2[0,0]
	vmulpd	xmm0, xmm3, xmmword ptr [rsp + 64]
	vmovapd	xmmword ptr [rsp + 32], xmm0
	vmulsd	xmm6, xmm2, qword ptr [rsp + 8*rsi + 48]
	vucomisd	xmm6, qword ptr [rsp + 8*rsi + 32]
	jne	.LBB5_66
	jp	.LBB5_66
# BB#8:
	vmulsd	xmm6, xmm2, qword ptr [rsp + 8*rbp + 48]
	vucomisd	xmm6, qword ptr [rsp + 8*rbp + 32]
	jne	.LBB5_9
	jp	.LBB5_9
# BB#63:
	lea	eax, [rdi + 3]
	mov	dword ptr [r8], eax
	vmovaps	xmm0, xmmword ptr [rcx]
	vmovaps	xmmword ptr [rsp + 48], xmm0
	mov	rdx, qword ptr [rcx + 16]
	vmovaps	xmm0, xmmword ptr [rcx]
	vmovaps	xmmword ptr [rsp + 64], xmm0
	mov	qword ptr [rsp + 96], rdx
	vmovq	xmm0, rdx
	vmovddup	xmm1, xmm0      # xmm1 = xmm0[0,0]
	vmulpd	xmm4, xmm1, xmmword ptr [rsp + 64]
	vmovapd	xmmword ptr [rsp + 32], xmm4
	vmulsd	xmm6, xmm0, qword ptr [rsp + 8*rsi + 48]
	vucomisd	xmm6, qword ptr [rsp + 8*rsi + 32]
	jne	.LBB5_64
	jp	.LBB5_64
# BB#16:
	vmulsd	xmm6, xmm0, qword ptr [rsp + 8*rbp + 48]
	vucomisd	xmm6, qword ptr [rsp + 8*rbp + 32]
	jne	.LBB5_17
	jp	.LBB5_17
# BB#61:
	lea	eax, [rdi + 4]
	mov	dword ptr [r8], eax
	vmovaps	xmm4, xmmword ptr [rcx]
	vmovaps	xmmword ptr [rsp + 48], xmm4
	vmovaps	xmm4, xmmword ptr [rbx]
	vmovaps	xmmword ptr [rsp + 64], xmm4
	vmovaps	xmm4, xmmword ptr [rcx]
	vmovaps	xmmword ptr [rsp + 32], xmm4
	vmovaps	xmm4, xmmword ptr [rbx]
	vmovaps	xmmword ptr [rsp + 96], xmm4
	vmovapd	xmm4, xmmword ptr [rsp + 32]
	vaddpd	xmm4, xmm4, xmmword ptr [rsp + 96]
	vmovapd	xmmword ptr [rsp + 80], xmm4
	vmovsd	xmm4, qword ptr [rsp + 8*rsi + 48] # xmm4 = mem[0],zero
	vaddsd	xmm6, xmm4, qword ptr [rsp + 8*rsi + 64]
	vucomisd	xmm6, qword ptr [rsp + 8*rsi + 80]
	jne	.LBB5_62
	jp	.LBB5_62
# BB#19:
	vmovsd	xmm4, qword ptr [rsp + 8*rbp + 48] # xmm4 = mem[0],zero
	vaddsd	xmm6, xmm4, qword ptr [rsp + 8*rbp + 64]
	vucomisd	xmm6, qword ptr [rsp + 8*rbp + 80]
	jne	.LBB5_20
	jp	.LBB5_20
# BB#59:
	lea	eax, [rdi + 5]
	mov	dword ptr [r8], eax
	vmovaps	xmm4, xmmword ptr [rbx]
	vmovaps	xmmword ptr [rsp + 48], xmm4
	mov	qword ptr [rsp + 96], r10
	vmovapd	xmm4, xmmword ptr [rbx]
	vmovapd	xmmword ptr [rsp + 64], xmm4
	vaddpd	xmm3, xmm3, xmmword ptr [rsp + 64]
	vmovapd	xmmword ptr [rsp + 32], xmm3
	vaddsd	xmm6, xmm2, qword ptr [rsp + 8*rsi + 48]
	vucomisd	xmm6, qword ptr [rsp + 8*rsi + 32]
	jne	.LBB5_60
	jp	.LBB5_60
# BB#22:
	vaddsd	xmm6, xmm2, qword ptr [rsp + 8*rbp + 48]
	vucomisd	xmm6, qword ptr [rsp + 8*rbp + 32]
	jne	.LBB5_23
	jp	.LBB5_23
# BB#57:
	lea	eax, [rdi + 6]
	mov	dword ptr [r8], eax
	vmovaps	xmm2, xmmword ptr [rcx]
	vmovaps	xmmword ptr [rsp + 48], xmm2
	vmovaps	xmm2, xmmword ptr [rcx]
	vmovaps	xmmword ptr [rsp + 64], xmm2
	mov	qword ptr [rsp + 96], rdx
	vaddpd	xmm2, xmm1, xmmword ptr [rsp + 64]
	vmovapd	xmmword ptr [rsp + 32], xmm2
	vaddsd	xmm6, xmm0, qword ptr [rsp + 8*rsi + 48]
	vucomisd	xmm6, qword ptr [rsp + 8*rsi + 32]
	jne	.LBB5_58
	jp	.LBB5_58
# BB#27:
	vaddsd	xmm6, xmm0, qword ptr [rsp + 8*rbp + 48]
	vucomisd	xmm6, qword ptr [rsp + 8*rbp + 32]
	jne	.LBB5_28
	jp	.LBB5_28
# BB#30:
	add	edi, 7
	mov	dword ptr [r8], edi
	vmovaps	xmm2, xmmword ptr [rcx]
	vmovaps	xmmword ptr [rsp + 48], xmm2
	mov	rax, qword ptr [rcx + 32]
	vmovaps	xmm2, xmmword ptr [rcx]
	vmovaps	xmmword ptr [rsp + 64], xmm2
	mov	qword ptr [rsp + 96], rdx
	mov	qword ptr [rsp + 80], rax
	#APP
	# TEST3 a * b + c -- P a = u1.p; S b = u2.d[0]; S c = u3.d[0];
	#NO_APP
	vmovq	xmm2, rax
	vmovddup	xmm3, xmm2      # xmm3 = xmm2[0,0]
	vfmadd132pd	xmm1, xmm3, xmmword ptr [rsp + 64]
	vmovapd	xmmword ptr [rsp + 32], xmm1
	movsxd	rsi, dword ptr [r9]
	vmulsd	xmm1, xmm0, qword ptr [rsp + 8*rsi + 48]
	vaddsd	xmm6, xmm1, xmm2
	vucomisd	xmm6, qword ptr [rsp + 8*rsi + 32]
	jne	.LBB5_32
	jp	.LBB5_32
# BB#31:
	movsxd	rsi, dword ptr [r9 + 4]
	vmulsd	xmm0, xmm0, qword ptr [rsp + 8*rsi + 48]
	vaddsd	xmm6, xmm0, xmm2
	vucomisd	xmm6, qword ptr [rsp + 8*rsi + 32]
	jne	.LBB5_32
	jp	.LBB5_32
# BB#36:
	inc	dword ptr [r8]
	mov	rax, qword ptr [rcx]
	vmovaps	xmm0, xmmword ptr [rbx]
	vmovaps	xmmword ptr [rsp + 48], xmm0
	mov	rdx, qword ptr [rcx + 32]
	mov	qword ptr [rsp + 96], rax
	vmovaps	xmm0, xmmword ptr [rbx]
	vmovaps	xmmword ptr [rsp + 64], xmm0
	mov	qword ptr [rsp + 80], rdx
	#APP
	# TEST3 a * b + c -- S a = u1.d[0]; P b = u2.p; S c = u3.d[0];
	#NO_APP
	vmovq	xmm0, rax
	vmovddup	xmm2, xmm0      # xmm2 = xmm0[0,0]
	vmovq	xmm1, rdx
	vmovddup	xmm3, xmm1      # xmm3 = xmm1[0,0]
	vfmadd231pd	xmm3, xmm2, xmmword ptr [rsp + 64]
	vmovapd	xmmword ptr [rsp + 32], xmm3
	movsxd	rsi, dword ptr [r9]
	vmulsd	xmm2, xmm0, qword ptr [rsp + 8*rsi + 48]
	vaddsd	xmm6, xmm2, xmm1
	vucomisd	xmm6, qword ptr [rsp + 8*rsi + 32]
	jne	.LBB5_38
	jp	.LBB5_38
# BB#37:
	movsxd	rsi, dword ptr [r9 + 4]
	vmulsd	xmm0, xmm0, qword ptr [rsp + 8*rsi + 48]
	vaddsd	xmm6, xmm0, xmm1
	vucomisd	xmm6, qword ptr [rsp + 8*rsi + 32]
	jne	.LBB5_38
	jp	.LBB5_38
# BB#39:
	inc	dword ptr [r8]
	vmovaps	xmm0, xmmword ptr [rcx]
	vmovaps	xmmword ptr [rsp + 48], xmm0
	vmovaps	xmm0, xmmword ptr [rbx]
	vmovaps	xmmword ptr [rsp + 64], xmm0
	mov	rax, qword ptr [rcx + 32]
	vmovaps	xmm0, xmmword ptr [rcx]
	vmovaps	xmmword ptr [rsp + 32], xmm0
	vmovaps	xmm0, xmmword ptr [rbx]
	vmovaps	xmmword ptr [rsp + 96], xmm0
	mov	qword ptr [rsp + 112], rax
	#APP
	# TEST3 a * b + c -- P a = u1.p; P b = u2.p; S c = u3.d[0];
	#NO_APP
	vmovapd	xmm1, xmmword ptr [rsp + 32]
	vmovq	xmm0, rax
	vmovddup	xmm2, xmm0      # xmm2 = xmm0[0,0]
	vfmadd231pd	xmm2, xmm1, xmmword ptr [rsp + 96]
	vmovapd	xmmword ptr [rsp + 80], xmm2
	movsxd	rsi, dword ptr [r9]
	vmovsd	xmm1, qword ptr [rsp + 8*rsi + 48] # xmm1 = mem[0],zero
	vmulsd	xmm1, xmm1, qword ptr [rsp + 8*rsi + 64]
	vaddsd	xmm6, xmm1, xmm0
	vucomisd	xmm6, qword ptr [rsp + 8*rsi + 80]
	jne	.LBB5_41
	jp	.LBB5_41
# BB#40:
	movsxd	rsi, dword ptr [r9 + 4]
	vmovsd	xmm1, qword ptr [rsp + 8*rsi + 48] # xmm1 = mem[0],zero
	vmulsd	xmm1, xmm1, qword ptr [rsp + 8*rsi + 64]
	vaddsd	xmm6, xmm1, xmm0
	vucomisd	xmm6, qword ptr [rsp + 8*rsi + 80]
	jne	.LBB5_41
	jp	.LBB5_41
# BB#42:
	inc	dword ptr [r8]
	mov	rax, qword ptr [rcx]
	mov	rdx, qword ptr [rcx + 16]
	vmovaps	xmm0, xmmword ptr [rcx + 32]
	vmovaps	xmmword ptr [rsp + 48], xmm0
	mov	qword ptr [rsp + 96], rax
	mov	qword ptr [rsp + 80], rdx
	vmovaps	xmm0, xmmword ptr [rcx + 32]
	vmovaps	xmmword ptr [rsp + 64], xmm0
	#APP
	# TEST3 a * b + c -- S a = u1.d[0]; S b = u2.d[0]; P c = u3.p;
	#NO_APP
	vmovq	xmm0, rax
	vmovq	xmm1, rdx
	vmulsd	xmm0, xmm0, xmm1
	vmovddup	xmm1, xmm0      # xmm1 = xmm0[0,0]
	vaddpd	xmm1, xmm1, xmmword ptr [rsp + 64]
	vmovapd	xmmword ptr [rsp + 32], xmm1
	movsxd	rsi, dword ptr [r9]
	vaddsd	xmm6, xmm0, qword ptr [rsp + 8*rsi + 48]
	vucomisd	xmm6, qword ptr [rsp + 8*rsi + 32]
	jne	.LBB5_44
	jp	.LBB5_44
# BB#43:
	movsxd	rsi, dword ptr [r9 + 4]
	vaddsd	xmm6, xmm0, qword ptr [rsp + 8*rsi + 48]
	vucomisd	xmm6, qword ptr [rsp + 8*rsi + 32]
	jne	.LBB5_44
	jp	.LBB5_44
# BB#45:
	lea	rdx, [rcx + 32]
	inc	dword ptr [r8]
	vmovaps	xmm0, xmmword ptr [rcx]
	vmovaps	xmmword ptr [rsp + 48], xmm0
	mov	rax, qword ptr [rcx + 16]
	vmovaps	xmm0, xmmword ptr [rdx]
	vmovaps	xmmword ptr [rsp + 64], xmm0
	vmovaps	xmm0, xmmword ptr [rcx]
	vmovaps	xmmword ptr [rsp + 32], xmm0
	mov	qword ptr [rsp + 112], rax
	vmovaps	xmm0, xmmword ptr [rdx]
	vmovaps	xmmword ptr [rsp + 96], xmm0
	#APP
	# TEST3 a * b + c -- P a = u1.p; S b = u2.d[0]; P c = u3.p;
	#NO_APP
	vmovapd	xmm1, xmmword ptr [rsp + 32]
	vmovq	xmm0, rax
	vmovddup	xmm2, xmm0      # xmm2 = xmm0[0,0]
	vfmadd213pd	xmm2, xmm1, xmmword ptr [rsp + 96]
	vmovapd	xmmword ptr [rsp + 80], xmm2
	movsxd	rsi, dword ptr [r9]
	vmulsd	xmm1, xmm0, qword ptr [rsp + 8*rsi + 48]
	vaddsd	xmm6, xmm1, qword ptr [rsp + 8*rsi + 64]
	vucomisd	xmm6, qword ptr [rsp + 8*rsi + 80]
	jne	.LBB5_47
	jp	.LBB5_47
# BB#46:
	movsxd	rsi, dword ptr [r9 + 4]
	vmulsd	xmm0, xmm0, qword ptr [rsp + 8*rsi + 48]
	vaddsd	xmm6, xmm0, qword ptr [rsp + 8*rsi + 64]
	vucomisd	xmm6, qword ptr [rsp + 8*rsi + 80]
	jne	.LBB5_47
	jp	.LBB5_47
# BB#50:
	inc	dword ptr [r8]
	mov	rax, qword ptr [rcx]
	vmovaps	xmm0, xmmword ptr [rbx]
	vmovaps	xmmword ptr [rsp + 48], xmm0
	vmovaps	xmm0, xmmword ptr [rdx]
	vmovaps	xmmword ptr [rsp + 64], xmm0
	mov	qword ptr [rsp + 112], rax
	vmovaps	xmm0, xmmword ptr [rbx]
	vmovaps	xmmword ptr [rsp + 32], xmm0
	vmovaps	xmm0, xmmword ptr [rdx]
	vmovaps	xmmword ptr [rsp + 96], xmm0
	#APP
	# TEST3 a * b + c -- S a = u1.d[0]; P b = u2.p; P c = u3.p;
	#NO_APP
	vmovq	xmm0, rax
	vmovddup	xmm1, xmm0      # xmm1 = xmm0[0,0]
	vmovapd	xmm2, xmmword ptr [rsp + 32]
	vfmadd213pd	xmm2, xmm1, xmmword ptr [rsp + 96]
	vmovapd	xmmword ptr [rsp + 80], xmm2
	movsxd	rsi, dword ptr [r9]
	vmulsd	xmm1, xmm0, qword ptr [rsp + 8*rsi + 48]
	vaddsd	xmm6, xmm1, qword ptr [rsp + 8*rsi + 64]
	vucomisd	xmm6, qword ptr [rsp + 8*rsi + 80]
	jne	.LBB5_52
	jp	.LBB5_52
# BB#51:
	movsxd	rsi, dword ptr [r9 + 4]
	vmulsd	xmm0, xmm0, qword ptr [rsp + 8*rsi + 48]
	vaddsd	xmm6, xmm0, qword ptr [rsp + 8*rsi + 64]
	vucomisd	xmm6, qword ptr [rsp + 8*rsi + 80]
	jne	.LBB5_52
	jp	.LBB5_52
# BB#53:
	inc	dword ptr [r8]
	vmovaps	xmm0, xmmword ptr [rcx]
	vmovaps	xmmword ptr [rsp + 48], xmm0
	vmovaps	xmm0, xmmword ptr [rbx]
	vmovaps	xmmword ptr [rsp + 64], xmm0
	vmovaps	xmm0, xmmword ptr [rdx]
	vmovaps	xmmword ptr [rsp + 32], xmm0
	vmovaps	xmm0, xmmword ptr [rcx]
	vmovaps	xmmword ptr [rsp + 96], xmm0
	vmovaps	xmm0, xmmword ptr [rbx]
	vmovaps	xmmword ptr [rsp + 80], xmm0
	vmovaps	xmm0, xmmword ptr [rdx]
	vmovaps	xmmword ptr [rsp + 112], xmm0
	#APP
	# TEST3 a * b + c -- P a = u1.p; P b = u2.p; P c = u3.p;
	#NO_APP
	vmovapd	xmm0, xmmword ptr [rsp + 96]
	vmovapd	xmm1, xmmword ptr [rsp + 80]
	vfmadd213pd	xmm1, xmm0, xmmword ptr [rsp + 112]
	vmovapd	xmmword ptr [rsp + 128], xmm1
	movsxd	rsi, dword ptr [r9]
	vmovsd	xmm0, qword ptr [rsp + 8*rsi + 48] # xmm0 = mem[0],zero
	vmulsd	xmm0, xmm0, qword ptr [rsp + 8*rsi + 64]
	vaddsd	xmm6, xmm0, qword ptr [rsp + 8*rsi + 32]
	vucomisd	xmm6, qword ptr [rsp + 8*rsi + 128]
	jne	.LBB5_55
	jp	.LBB5_55
# BB#54:
	movsxd	rsi, dword ptr [r9 + 4]
	vmovsd	xmm0, qword ptr [rsp + 8*rsi + 48] # xmm0 = mem[0],zero
	vmulsd	xmm0, xmm0, qword ptr [rsp + 8*rsi + 64]
	vaddsd	xmm6, xmm0, qword ptr [rsp + 8*rsi + 32]
	vucomisd	xmm6, qword ptr [rsp + 8*rsi + 128]
	jne	.LBB5_55
	jp	.LBB5_55
# BB#56:
	inc	dword ptr [r8]
	vmovaps	xmm6, xmmword ptr [rsp + 144] # 16-byte Reload
	add	rsp, 168
	pop	rbx
	pop	rbp
	pop	rdi
	pop	rsi
	pop	r14
	pop	r15
	ret
.LBB5_32:
	lea	r14, [rsp + 8*rsi + 32]
	movabs	rcx, _ZSt4cerr
	movabs	rdx, .L.str.1
	call	_ZStlsISt11char_traitsIcEERSt13basic_ostreamIcT_ES5_PKc
	movabs	rdx, _ZTSN4math6pack2dE
	mov	rcx, rax
	call	_ZStlsISt11char_traitsIcEERSt13basic_ostreamIcT_ES5_PKc
	movabs	rdx, .L.str.2
	mov	rcx, rax
	call	_ZStlsISt11char_traitsIcEERSt13basic_ostreamIcT_ES5_PKc
	movabs	rcx, _ZTId
	mov	rdi, qword ptr [rcx + 8]
	lea	rbp, [rdi + 1]
	cmp	byte ptr [rdi], 42
	mov	rdx, rdi
	cmove	rdx, rbp
	mov	rcx, rax
	call	_ZStlsISt11char_traitsIcEERSt13basic_ostreamIcT_ES5_PKc
	movabs	rbx, .L.str.10
	mov	rcx, rax
	mov	rdx, rbx
	call	_ZStlsISt11char_traitsIcEERSt13basic_ostreamIcT_ES5_PKc
	cmp	byte ptr [rdi], 42
	cmove	rdi, rbp
	mov	rcx, rax
	mov	rdx, rdi
	call	_ZStlsISt11char_traitsIcEERSt13basic_ostreamIcT_ES5_PKc
	mov	rcx, rax
	mov	rdx, rbx
	call	_ZStlsISt11char_traitsIcEERSt13basic_ostreamIcT_ES5_PKc
	movabs	rdx, .L.str.3
	mov	rcx, rax
	call	_ZStlsISt11char_traitsIcEERSt13basic_ostreamIcT_ES5_PKc
	lea	rdx, [rsp + 64]
	mov	rcx, rax
	call	_ZlsIN4math6pack2dEERSoS2_7printerIT_E
	movabs	rdi, .L.str.4
	mov	rcx, rax
	mov	rdx, rdi
	call	_ZStlsISt11char_traitsIcEERSt13basic_ostreamIcT_ES5_PKc
	movabs	rbx, .L.str.11
	mov	rcx, rax
	mov	rdx, rbx
	call	_ZStlsISt11char_traitsIcEERSt13basic_ostreamIcT_ES5_PKc
	lea	rdx, [rsp + 96]
	mov	rcx, rax
	call	_ZlsIdERSoS0_7printerIT_E
	jmp	.LBB5_33
.LBB5_38:
	lea	r14, [rsp + 8*rsi + 32]
	movabs	rcx, _ZSt4cerr
	movabs	rdx, .L.str.1
	call	_ZStlsISt11char_traitsIcEERSt13basic_ostreamIcT_ES5_PKc
	movabs	rcx, _ZTId
	mov	rdi, qword ptr [rcx + 8]
	lea	rbp, [rdi + 1]
	cmp	byte ptr [rdi], 42
	mov	rdx, rdi
	cmove	rdx, rbp
	mov	rcx, rax
	call	_ZStlsISt11char_traitsIcEERSt13basic_ostreamIcT_ES5_PKc
	movabs	rdx, .L.str.2
	mov	rcx, rax
	call	_ZStlsISt11char_traitsIcEERSt13basic_ostreamIcT_ES5_PKc
	movabs	rdx, _ZTSN4math6pack2dE
	mov	rcx, rax
	call	_ZStlsISt11char_traitsIcEERSt13basic_ostreamIcT_ES5_PKc
	movabs	rbx, .L.str.10
	mov	rcx, rax
	mov	rdx, rbx
	call	_ZStlsISt11char_traitsIcEERSt13basic_ostreamIcT_ES5_PKc
	cmp	byte ptr [rdi], 42
	cmove	rdi, rbp
	mov	rcx, rax
	mov	rdx, rdi
	call	_ZStlsISt11char_traitsIcEERSt13basic_ostreamIcT_ES5_PKc
	mov	rcx, rax
	mov	rdx, rbx
	call	_ZStlsISt11char_traitsIcEERSt13basic_ostreamIcT_ES5_PKc
	movabs	rdx, .L.str.3
	mov	rcx, rax
	call	_ZStlsISt11char_traitsIcEERSt13basic_ostreamIcT_ES5_PKc
	lea	rdx, [rsp + 96]
	mov	rcx, rax
	call	_ZlsIdERSoS0_7printerIT_E
	movabs	rdi, .L.str.4
	mov	rcx, rax
	mov	rdx, rdi
	call	_ZStlsISt11char_traitsIcEERSt13basic_ostreamIcT_ES5_PKc
	movabs	rbx, .L.str.11
	mov	rcx, rax
	mov	rdx, rbx
	call	_ZStlsISt11char_traitsIcEERSt13basic_ostreamIcT_ES5_PKc
	lea	rdx, [rsp + 64]
	mov	rcx, rax
	call	_ZlsIN4math6pack2dEERSoS2_7printerIT_E
.LBB5_33:
	mov	rcx, rax
	mov	rdx, rdi
	call	_ZStlsISt11char_traitsIcEERSt13basic_ostreamIcT_ES5_PKc
	mov	rcx, rax
	mov	rdx, rbx
	call	_ZStlsISt11char_traitsIcEERSt13basic_ostreamIcT_ES5_PKc
	lea	rdx, [rsp + 80]
	mov	rcx, rax
	call	_ZlsIdERSoS0_7printerIT_E
	jmp	.LBB5_34
.LBB5_41:
	lea	r14, [rsp + 8*rsi + 80]
	movabs	rcx, _ZSt4cerr
	movabs	rdx, .L.str.1
	call	_ZStlsISt11char_traitsIcEERSt13basic_ostreamIcT_ES5_PKc
	movabs	rdi, _ZTSN4math6pack2dE
	mov	rcx, rax
	mov	rdx, rdi
	call	_ZStlsISt11char_traitsIcEERSt13basic_ostreamIcT_ES5_PKc
	movabs	rdx, .L.str.2
	mov	rcx, rax
	call	_ZStlsISt11char_traitsIcEERSt13basic_ostreamIcT_ES5_PKc
	mov	rcx, rax
	mov	rdx, rdi
	call	_ZStlsISt11char_traitsIcEERSt13basic_ostreamIcT_ES5_PKc
	movabs	rdi, .L.str.10
	mov	rcx, rax
	mov	rdx, rdi
	call	_ZStlsISt11char_traitsIcEERSt13basic_ostreamIcT_ES5_PKc
	movabs	rcx, _ZTId
	mov	rcx, qword ptr [rcx + 8]
	lea	rdx, [rcx + 1]
	cmp	byte ptr [rcx], 42
	cmovne	rdx, rcx
	mov	rcx, rax
	call	_ZStlsISt11char_traitsIcEERSt13basic_ostreamIcT_ES5_PKc
	mov	rcx, rax
	mov	rdx, rdi
	call	_ZStlsISt11char_traitsIcEERSt13basic_ostreamIcT_ES5_PKc
	movabs	rdx, .L.str.3
	mov	rcx, rax
	call	_ZStlsISt11char_traitsIcEERSt13basic_ostreamIcT_ES5_PKc
	lea	rdx, [rsp + 32]
	mov	rcx, rax
	call	_ZlsIN4math6pack2dEERSoS2_7printerIT_E
	movabs	rdi, .L.str.4
	mov	rcx, rax
	mov	rdx, rdi
	call	_ZStlsISt11char_traitsIcEERSt13basic_ostreamIcT_ES5_PKc
	movabs	rbx, .L.str.11
	mov	rcx, rax
	mov	rdx, rbx
	call	_ZStlsISt11char_traitsIcEERSt13basic_ostreamIcT_ES5_PKc
	lea	rdx, [rsp + 96]
	mov	rcx, rax
	call	_ZlsIN4math6pack2dEERSoS2_7printerIT_E
	mov	rcx, rax
	mov	rdx, rdi
	call	_ZStlsISt11char_traitsIcEERSt13basic_ostreamIcT_ES5_PKc
	mov	rcx, rax
	mov	rdx, rbx
	call	_ZStlsISt11char_traitsIcEERSt13basic_ostreamIcT_ES5_PKc
	lea	rdx, [rsp + 112]
	mov	rcx, rax
	call	_ZlsIdERSoS0_7printerIT_E
	jmp	.LBB5_49
.LBB5_44:
	lea	r14, [rsp + 8*rsi + 32]
	movabs	rcx, _ZSt4cerr
	movabs	rdx, .L.str.1
	call	_ZStlsISt11char_traitsIcEERSt13basic_ostreamIcT_ES5_PKc
	movabs	rcx, _ZTId
	mov	rdi, qword ptr [rcx + 8]
	lea	rbx, [rdi + 1]
	cmp	byte ptr [rdi], 42
	mov	rdx, rdi
	cmove	rdx, rbx
	mov	rcx, rax
	call	_ZStlsISt11char_traitsIcEERSt13basic_ostreamIcT_ES5_PKc
	movabs	rdx, .L.str.2
	mov	rcx, rax
	call	_ZStlsISt11char_traitsIcEERSt13basic_ostreamIcT_ES5_PKc
	cmp	byte ptr [rdi], 42
	cmove	rdi, rbx
	mov	rcx, rax
	mov	rdx, rdi
	call	_ZStlsISt11char_traitsIcEERSt13basic_ostreamIcT_ES5_PKc
	movabs	rdi, .L.str.10
	mov	rcx, rax
	mov	rdx, rdi
	call	_ZStlsISt11char_traitsIcEERSt13basic_ostreamIcT_ES5_PKc
	movabs	rdx, _ZTSN4math6pack2dE
	mov	rcx, rax
	call	_ZStlsISt11char_traitsIcEERSt13basic_ostreamIcT_ES5_PKc
	mov	rcx, rax
	mov	rdx, rdi
	call	_ZStlsISt11char_traitsIcEERSt13basic_ostreamIcT_ES5_PKc
	movabs	rdx, .L.str.3
	mov	rcx, rax
	call	_ZStlsISt11char_traitsIcEERSt13basic_ostreamIcT_ES5_PKc
	lea	rdx, [rsp + 96]
	mov	rcx, rax
	call	_ZlsIdERSoS0_7printerIT_E
	movabs	rdi, .L.str.4
	mov	rcx, rax
	mov	rdx, rdi
	call	_ZStlsISt11char_traitsIcEERSt13basic_ostreamIcT_ES5_PKc
	movabs	rbx, .L.str.11
	mov	rcx, rax
	mov	rdx, rbx
	call	_ZStlsISt11char_traitsIcEERSt13basic_ostreamIcT_ES5_PKc
	lea	rdx, [rsp + 80]
	mov	rcx, rax
	call	_ZlsIdERSoS0_7printerIT_E
	mov	rcx, rax
	mov	rdx, rdi
	call	_ZStlsISt11char_traitsIcEERSt13basic_ostreamIcT_ES5_PKc
	mov	rcx, rax
	mov	rdx, rbx
	call	_ZStlsISt11char_traitsIcEERSt13basic_ostreamIcT_ES5_PKc
	lea	rdx, [rsp + 64]
	mov	rcx, rax
	call	_ZlsIN4math6pack2dEERSoS2_7printerIT_E
.LBB5_34:
	mov	rcx, rax
	mov	rdx, rdi
	call	_ZStlsISt11char_traitsIcEERSt13basic_ostreamIcT_ES5_PKc
	movabs	rdx, .L.str.5
	mov	rcx, rax
	call	_ZStlsISt11char_traitsIcEERSt13basic_ostreamIcT_ES5_PKc
	lea	rdx, [rsp + 32]
	jmp	.LBB5_35
.LBB5_47:
	lea	r14, [rsp + 8*rsi + 80]
	movabs	rcx, _ZSt4cerr
	movabs	rdx, .L.str.1
	call	_ZStlsISt11char_traitsIcEERSt13basic_ostreamIcT_ES5_PKc
	movabs	rdi, _ZTSN4math6pack2dE
	mov	rcx, rax
	mov	rdx, rdi
	call	_ZStlsISt11char_traitsIcEERSt13basic_ostreamIcT_ES5_PKc
	movabs	rdx, .L.str.2
	mov	rcx, rax
	call	_ZStlsISt11char_traitsIcEERSt13basic_ostreamIcT_ES5_PKc
	movabs	rcx, _ZTId
	mov	rcx, qword ptr [rcx + 8]
	lea	rdx, [rcx + 1]
	cmp	byte ptr [rcx], 42
	cmovne	rdx, rcx
	mov	rcx, rax
	call	_ZStlsISt11char_traitsIcEERSt13basic_ostreamIcT_ES5_PKc
	movabs	rbx, .L.str.10
	mov	rcx, rax
	mov	rdx, rbx
	call	_ZStlsISt11char_traitsIcEERSt13basic_ostreamIcT_ES5_PKc
	mov	rcx, rax
	mov	rdx, rdi
	call	_ZStlsISt11char_traitsIcEERSt13basic_ostreamIcT_ES5_PKc
	mov	rcx, rax
	mov	rdx, rbx
	call	_ZStlsISt11char_traitsIcEERSt13basic_ostreamIcT_ES5_PKc
	movabs	rdx, .L.str.3
	mov	rcx, rax
	call	_ZStlsISt11char_traitsIcEERSt13basic_ostreamIcT_ES5_PKc
	lea	rdx, [rsp + 32]
	mov	rcx, rax
	call	_ZlsIN4math6pack2dEERSoS2_7printerIT_E
	movabs	rdi, .L.str.4
	mov	rcx, rax
	mov	rdx, rdi
	call	_ZStlsISt11char_traitsIcEERSt13basic_ostreamIcT_ES5_PKc
	movabs	rbx, .L.str.11
	mov	rcx, rax
	mov	rdx, rbx
	call	_ZStlsISt11char_traitsIcEERSt13basic_ostreamIcT_ES5_PKc
	lea	rdx, [rsp + 112]
	mov	rcx, rax
	call	_ZlsIdERSoS0_7printerIT_E
	jmp	.LBB5_48
.LBB5_52:
	lea	r14, [rsp + 8*rsi + 80]
	movabs	rcx, _ZSt4cerr
	movabs	rdx, .L.str.1
	call	_ZStlsISt11char_traitsIcEERSt13basic_ostreamIcT_ES5_PKc
	movabs	rcx, _ZTId
	mov	rcx, qword ptr [rcx + 8]
	lea	rdx, [rcx + 1]
	cmp	byte ptr [rcx], 42
	cmovne	rdx, rcx
	mov	rcx, rax
	call	_ZStlsISt11char_traitsIcEERSt13basic_ostreamIcT_ES5_PKc
	movabs	rdx, .L.str.2
	mov	rcx, rax
	call	_ZStlsISt11char_traitsIcEERSt13basic_ostreamIcT_ES5_PKc
	movabs	rdi, _ZTSN4math6pack2dE
	mov	rcx, rax
	mov	rdx, rdi
	call	_ZStlsISt11char_traitsIcEERSt13basic_ostreamIcT_ES5_PKc
	movabs	rbx, .L.str.10
	mov	rcx, rax
	mov	rdx, rbx
	call	_ZStlsISt11char_traitsIcEERSt13basic_ostreamIcT_ES5_PKc
	mov	rcx, rax
	mov	rdx, rdi
	call	_ZStlsISt11char_traitsIcEERSt13basic_ostreamIcT_ES5_PKc
	mov	rcx, rax
	mov	rdx, rbx
	call	_ZStlsISt11char_traitsIcEERSt13basic_ostreamIcT_ES5_PKc
	movabs	rdx, .L.str.3
	mov	rcx, rax
	call	_ZStlsISt11char_traitsIcEERSt13basic_ostreamIcT_ES5_PKc
	lea	rdx, [rsp + 112]
	mov	rcx, rax
	call	_ZlsIdERSoS0_7printerIT_E
	movabs	rdi, .L.str.4
	mov	rcx, rax
	mov	rdx, rdi
	call	_ZStlsISt11char_traitsIcEERSt13basic_ostreamIcT_ES5_PKc
	movabs	rbx, .L.str.11
	mov	rcx, rax
	mov	rdx, rbx
	call	_ZStlsISt11char_traitsIcEERSt13basic_ostreamIcT_ES5_PKc
	lea	rdx, [rsp + 32]
	mov	rcx, rax
	call	_ZlsIN4math6pack2dEERSoS2_7printerIT_E
.LBB5_48:
	mov	rcx, rax
	mov	rdx, rdi
	call	_ZStlsISt11char_traitsIcEERSt13basic_ostreamIcT_ES5_PKc
	mov	rcx, rax
	mov	rdx, rbx
	call	_ZStlsISt11char_traitsIcEERSt13basic_ostreamIcT_ES5_PKc
	lea	rdx, [rsp + 96]
	mov	rcx, rax
	call	_ZlsIN4math6pack2dEERSoS2_7printerIT_E
.LBB5_49:
	mov	rcx, rax
	mov	rdx, rdi
	call	_ZStlsISt11char_traitsIcEERSt13basic_ostreamIcT_ES5_PKc
	movabs	rdx, .L.str.5
	mov	rcx, rax
	call	_ZStlsISt11char_traitsIcEERSt13basic_ostreamIcT_ES5_PKc
	lea	rdx, [rsp + 80]
	jmp	.LBB5_35
.LBB5_55:
	lea	r14, [rsp + 8*rsi + 128]
	movabs	rcx, _ZSt4cerr
	movabs	rdx, .L.str.1
	call	_ZStlsISt11char_traitsIcEERSt13basic_ostreamIcT_ES5_PKc
	movabs	rdi, _ZTSN4math6pack2dE
	mov	rcx, rax
	mov	rdx, rdi
	call	_ZStlsISt11char_traitsIcEERSt13basic_ostreamIcT_ES5_PKc
	movabs	rdx, .L.str.2
	mov	rcx, rax
	call	_ZStlsISt11char_traitsIcEERSt13basic_ostreamIcT_ES5_PKc
	mov	rcx, rax
	mov	rdx, rdi
	call	_ZStlsISt11char_traitsIcEERSt13basic_ostreamIcT_ES5_PKc
	movabs	rbx, .L.str.10
	mov	rcx, rax
	mov	rdx, rbx
	call	_ZStlsISt11char_traitsIcEERSt13basic_ostreamIcT_ES5_PKc
	mov	rcx, rax
	mov	rdx, rdi
	call	_ZStlsISt11char_traitsIcEERSt13basic_ostreamIcT_ES5_PKc
	mov	rcx, rax
	mov	rdx, rbx
	call	_ZStlsISt11char_traitsIcEERSt13basic_ostreamIcT_ES5_PKc
	movabs	rdx, .L.str.3
	mov	rcx, rax
	call	_ZStlsISt11char_traitsIcEERSt13basic_ostreamIcT_ES5_PKc
	lea	rdx, [rsp + 96]
	mov	rcx, rax
	call	_ZlsIN4math6pack2dEERSoS2_7printerIT_E
	movabs	rdi, .L.str.4
	mov	rcx, rax
	mov	rdx, rdi
	call	_ZStlsISt11char_traitsIcEERSt13basic_ostreamIcT_ES5_PKc
	movabs	rbx, .L.str.11
	mov	rcx, rax
	mov	rdx, rbx
	call	_ZStlsISt11char_traitsIcEERSt13basic_ostreamIcT_ES5_PKc
	lea	rdx, [rsp + 80]
	mov	rcx, rax
	call	_ZlsIN4math6pack2dEERSoS2_7printerIT_E
	mov	rcx, rax
	mov	rdx, rdi
	call	_ZStlsISt11char_traitsIcEERSt13basic_ostreamIcT_ES5_PKc
	mov	rcx, rax
	mov	rdx, rbx
	call	_ZStlsISt11char_traitsIcEERSt13basic_ostreamIcT_ES5_PKc
	lea	rdx, [rsp + 112]
	mov	rcx, rax
	call	_ZlsIN4math6pack2dEERSoS2_7printerIT_E
	mov	rcx, rax
	mov	rdx, rdi
	call	_ZStlsISt11char_traitsIcEERSt13basic_ostreamIcT_ES5_PKc
	movabs	rdx, .L.str.5
	mov	rcx, rax
	call	_ZStlsISt11char_traitsIcEERSt13basic_ostreamIcT_ES5_PKc
	lea	rdx, [rsp + 128]
.LBB5_35:
	mov	rcx, rax
	call	_ZlsIN4math6pack2dEERSoS2_7printerIT_E
	mov	rcx, rax
	mov	rdx, rdi
	call	_ZStlsISt11char_traitsIcEERSt13basic_ostreamIcT_ES5_PKc
	movabs	rdx, .L.str.14
	mov	rcx, rax
	call	_ZStlsISt11char_traitsIcEERSt13basic_ostreamIcT_ES5_PKc
	movabs	rdx, .L.str.7
	mov	rcx, rax
	call	_ZStlsISt11char_traitsIcEERSt13basic_ostreamIcT_ES5_PKc
	mov	rcx, rax
	mov	edx, esi
	call	_ZNSolsEi
	movabs	rdx, .L.str.8
	mov	rcx, rax
	call	_ZStlsISt11char_traitsIcEERSt13basic_ostreamIcT_ES5_PKc
	mov	rcx, rax
	vmovapd	xmm1, xmm6
	call	_ZNSo9_M_insertIdEERSoT_
	movabs	rdx, .L.str.9
	mov	rcx, rax
	call	_ZStlsISt11char_traitsIcEERSt13basic_ostreamIcT_ES5_PKc
	vmovsd	xmm1, qword ptr [r14]   # xmm1 = mem[0],zero
	jmp	.LBB5_14
.LBB5_1:
	lea	rdi, [rsp + 8*rsi + 32]
	jmp	.LBB5_4
.LBB5_3:
	lea	rdi, [rsp + 8*rbp + 32]
	mov	r15d, r14d
.LBB5_4:
	movabs	rcx, _ZSt4cerr
	movabs	rdx, .L.str.1
	call	_ZStlsISt11char_traitsIcEERSt13basic_ostreamIcT_ES5_PKc
	movabs	rdx, _ZTSN4math6pack2dE
	mov	rcx, rax
	call	_ZStlsISt11char_traitsIcEERSt13basic_ostreamIcT_ES5_PKc
	movabs	rdx, .L.str.2
	mov	rcx, rax
	call	_ZStlsISt11char_traitsIcEERSt13basic_ostreamIcT_ES5_PKc
	movabs	rdx, .L.str.3
	mov	rcx, rax
	call	_ZStlsISt11char_traitsIcEERSt13basic_ostreamIcT_ES5_PKc
	lea	rdx, [rsp + 64]
	mov	rcx, rax
	call	_ZlsIN4math6pack2dEERSoS2_7printerIT_E
	movabs	rsi, .L.str.4
	mov	rcx, rax
	mov	rdx, rsi
	call	_ZStlsISt11char_traitsIcEERSt13basic_ostreamIcT_ES5_PKc
	movabs	rdx, .L.str.5
	mov	rcx, rax
	call	_ZStlsISt11char_traitsIcEERSt13basic_ostreamIcT_ES5_PKc
	lea	rdx, [rsp + 32]
	mov	rcx, rax
	call	_ZlsIN4math6pack2dEERSoS2_7printerIT_E
	mov	rcx, rax
	mov	rdx, rsi
	call	_ZStlsISt11char_traitsIcEERSt13basic_ostreamIcT_ES5_PKc
	movabs	rdx, .L.str.6
	mov	rcx, rax
	call	_ZStlsISt11char_traitsIcEERSt13basic_ostreamIcT_ES5_PKc
	movabs	rdx, .L.str.7
	mov	rcx, rax
	call	_ZStlsISt11char_traitsIcEERSt13basic_ostreamIcT_ES5_PKc
	mov	rcx, rax
	mov	edx, r15d
	call	_ZNSolsEi
	movabs	rdx, .L.str.8
	mov	rcx, rax
	call	_ZStlsISt11char_traitsIcEERSt13basic_ostreamIcT_ES5_PKc
	mov	rcx, rax
	vmovapd	xmm1, xmm6
	call	_ZNSo9_M_insertIdEERSoT_
	movabs	rdx, .L.str.9
	mov	rcx, rax
	call	_ZStlsISt11char_traitsIcEERSt13basic_ostreamIcT_ES5_PKc
	vmovsd	xmm1, qword ptr [rdi]   # xmm1 = mem[0],zero
	mov	rcx, rax
	call	_ZNSo9_M_insertIdEERSoT_
	mov	rcx, rax
	mov	rdx, rsi
	jmp	.LBB5_15
.LBB5_68:
	lea	rsi, [rsp + 8*rsi + 80]
	mov	r14d, r15d
	jmp	.LBB5_7
.LBB5_6:
	lea	rsi, [rsp + 8*rbp + 80]
.LBB5_7:
	movabs	rcx, _ZSt4cerr
	movabs	rdx, .L.str.1
	call	_ZStlsISt11char_traitsIcEERSt13basic_ostreamIcT_ES5_PKc
	movabs	rdi, _ZTSN4math6pack2dE
	mov	rcx, rax
	mov	rdx, rdi
	call	_ZStlsISt11char_traitsIcEERSt13basic_ostreamIcT_ES5_PKc
	movabs	rdx, .L.str.2
	mov	rcx, rax
	call	_ZStlsISt11char_traitsIcEERSt13basic_ostreamIcT_ES5_PKc
	mov	rcx, rax
	mov	rdx, rdi
	call	_ZStlsISt11char_traitsIcEERSt13basic_ostreamIcT_ES5_PKc
	movabs	rdx, .L.str.10
	mov	rcx, rax
	call	_ZStlsISt11char_traitsIcEERSt13basic_ostreamIcT_ES5_PKc
	movabs	rdx, .L.str.3
	mov	rcx, rax
	call	_ZStlsISt11char_traitsIcEERSt13basic_ostreamIcT_ES5_PKc
	lea	rdx, [rsp + 32]
	mov	rcx, rax
	call	_ZlsIN4math6pack2dEERSoS2_7printerIT_E
	movabs	rdi, .L.str.4
	mov	rcx, rax
	mov	rdx, rdi
	call	_ZStlsISt11char_traitsIcEERSt13basic_ostreamIcT_ES5_PKc
	movabs	rdx, .L.str.11
	mov	rcx, rax
	call	_ZStlsISt11char_traitsIcEERSt13basic_ostreamIcT_ES5_PKc
	lea	rdx, [rsp + 96]
	mov	rcx, rax
	call	_ZlsIN4math6pack2dEERSoS2_7printerIT_E
	mov	rcx, rax
	mov	rdx, rdi
	call	_ZStlsISt11char_traitsIcEERSt13basic_ostreamIcT_ES5_PKc
	movabs	rdx, .L.str.5
	mov	rcx, rax
	call	_ZStlsISt11char_traitsIcEERSt13basic_ostreamIcT_ES5_PKc
	lea	rdx, [rsp + 80]
	jmp	.LBB5_12
.LBB5_66:
	lea	rsi, [rsp + 8*rsi + 32]
	mov	r14d, r15d
	jmp	.LBB5_10
.LBB5_9:
	lea	rsi, [rsp + 8*rbp + 32]
.LBB5_10:
	movabs	rcx, _ZSt4cerr
	movabs	rdx, .L.str.1
	call	_ZStlsISt11char_traitsIcEERSt13basic_ostreamIcT_ES5_PKc
	movabs	rcx, _ZTId
	mov	rcx, qword ptr [rcx + 8]
	lea	rdx, [rcx + 1]
	cmp	byte ptr [rcx], 42
	cmovne	rdx, rcx
	mov	rcx, rax
	call	_ZStlsISt11char_traitsIcEERSt13basic_ostreamIcT_ES5_PKc
	movabs	rdx, .L.str.2
	mov	rcx, rax
	call	_ZStlsISt11char_traitsIcEERSt13basic_ostreamIcT_ES5_PKc
	movabs	rdx, _ZTSN4math6pack2dE
	mov	rcx, rax
	call	_ZStlsISt11char_traitsIcEERSt13basic_ostreamIcT_ES5_PKc
	movabs	rdx, .L.str.10
	mov	rcx, rax
	call	_ZStlsISt11char_traitsIcEERSt13basic_ostreamIcT_ES5_PKc
	movabs	rdx, .L.str.3
	mov	rcx, rax
	call	_ZStlsISt11char_traitsIcEERSt13basic_ostreamIcT_ES5_PKc
	lea	rdx, [rsp + 96]
	mov	rcx, rax
	call	_ZlsIdERSoS0_7printerIT_E
	movabs	rdi, .L.str.4
	mov	rcx, rax
	mov	rdx, rdi
	call	_ZStlsISt11char_traitsIcEERSt13basic_ostreamIcT_ES5_PKc
	movabs	rdx, .L.str.11
	mov	rcx, rax
	call	_ZStlsISt11char_traitsIcEERSt13basic_ostreamIcT_ES5_PKc
	lea	rdx, [rsp + 64]
	mov	rcx, rax
	call	_ZlsIN4math6pack2dEERSoS2_7printerIT_E
	jmp	.LBB5_11
.LBB5_64:
	lea	rsi, [rsp + 8*rsi + 32]
	mov	r14d, r15d
	jmp	.LBB5_18
.LBB5_17:
	lea	rsi, [rsp + 8*rbp + 32]
.LBB5_18:
	movabs	rcx, _ZSt4cerr
	movabs	rdx, .L.str.1
	call	_ZStlsISt11char_traitsIcEERSt13basic_ostreamIcT_ES5_PKc
	movabs	rdx, _ZTSN4math6pack2dE
	mov	rcx, rax
	call	_ZStlsISt11char_traitsIcEERSt13basic_ostreamIcT_ES5_PKc
	movabs	rdx, .L.str.2
	mov	rcx, rax
	call	_ZStlsISt11char_traitsIcEERSt13basic_ostreamIcT_ES5_PKc
	movabs	rcx, _ZTId
	mov	rcx, qword ptr [rcx + 8]
	lea	rdx, [rcx + 1]
	cmp	byte ptr [rcx], 42
	cmovne	rdx, rcx
	mov	rcx, rax
	call	_ZStlsISt11char_traitsIcEERSt13basic_ostreamIcT_ES5_PKc
	movabs	rdx, .L.str.10
	mov	rcx, rax
	call	_ZStlsISt11char_traitsIcEERSt13basic_ostreamIcT_ES5_PKc
	movabs	rdx, .L.str.3
	mov	rcx, rax
	call	_ZStlsISt11char_traitsIcEERSt13basic_ostreamIcT_ES5_PKc
	lea	rdx, [rsp + 64]
	mov	rcx, rax
	call	_ZlsIN4math6pack2dEERSoS2_7printerIT_E
	movabs	rdi, .L.str.4
	mov	rcx, rax
	mov	rdx, rdi
	call	_ZStlsISt11char_traitsIcEERSt13basic_ostreamIcT_ES5_PKc
	movabs	rdx, .L.str.11
	mov	rcx, rax
	call	_ZStlsISt11char_traitsIcEERSt13basic_ostreamIcT_ES5_PKc
	lea	rdx, [rsp + 96]
	mov	rcx, rax
	call	_ZlsIdERSoS0_7printerIT_E
.LBB5_11:
	mov	rcx, rax
	mov	rdx, rdi
	call	_ZStlsISt11char_traitsIcEERSt13basic_ostreamIcT_ES5_PKc
	movabs	rdx, .L.str.5
	mov	rcx, rax
	call	_ZStlsISt11char_traitsIcEERSt13basic_ostreamIcT_ES5_PKc
	lea	rdx, [rsp + 32]
.LBB5_12:
	mov	rcx, rax
	call	_ZlsIN4math6pack2dEERSoS2_7printerIT_E
	mov	rcx, rax
	mov	rdx, rdi
	call	_ZStlsISt11char_traitsIcEERSt13basic_ostreamIcT_ES5_PKc
	movabs	rdx, .L.str.12
	jmp	.LBB5_13
.LBB5_62:
	lea	rsi, [rsp + 8*rsi + 80]
	mov	r14d, r15d
	jmp	.LBB5_21
.LBB5_20:
	lea	rsi, [rsp + 8*rbp + 80]
.LBB5_21:
	movabs	rcx, _ZSt4cerr
	movabs	rdx, .L.str.1
	call	_ZStlsISt11char_traitsIcEERSt13basic_ostreamIcT_ES5_PKc
	movabs	rdi, _ZTSN4math6pack2dE
	mov	rcx, rax
	mov	rdx, rdi
	call	_ZStlsISt11char_traitsIcEERSt13basic_ostreamIcT_ES5_PKc
	movabs	rdx, .L.str.2
	mov	rcx, rax
	call	_ZStlsISt11char_traitsIcEERSt13basic_ostreamIcT_ES5_PKc
	mov	rcx, rax
	mov	rdx, rdi
	call	_ZStlsISt11char_traitsIcEERSt13basic_ostreamIcT_ES5_PKc
	movabs	rdx, .L.str.10
	mov	rcx, rax
	call	_ZStlsISt11char_traitsIcEERSt13basic_ostreamIcT_ES5_PKc
	movabs	rdx, .L.str.3
	mov	rcx, rax
	call	_ZStlsISt11char_traitsIcEERSt13basic_ostreamIcT_ES5_PKc
	lea	rdx, [rsp + 32]
	mov	rcx, rax
	call	_ZlsIN4math6pack2dEERSoS2_7printerIT_E
	movabs	rdi, .L.str.4
	mov	rcx, rax
	mov	rdx, rdi
	call	_ZStlsISt11char_traitsIcEERSt13basic_ostreamIcT_ES5_PKc
	movabs	rdx, .L.str.11
	mov	rcx, rax
	call	_ZStlsISt11char_traitsIcEERSt13basic_ostreamIcT_ES5_PKc
	lea	rdx, [rsp + 96]
	mov	rcx, rax
	call	_ZlsIN4math6pack2dEERSoS2_7printerIT_E
	mov	rcx, rax
	mov	rdx, rdi
	call	_ZStlsISt11char_traitsIcEERSt13basic_ostreamIcT_ES5_PKc
	movabs	rdx, .L.str.5
	mov	rcx, rax
	call	_ZStlsISt11char_traitsIcEERSt13basic_ostreamIcT_ES5_PKc
	lea	rdx, [rsp + 80]
	jmp	.LBB5_26
.LBB5_60:
	lea	rsi, [rsp + 8*rsi + 32]
	mov	r14d, r15d
	jmp	.LBB5_24
.LBB5_23:
	lea	rsi, [rsp + 8*rbp + 32]
.LBB5_24:
	movabs	rcx, _ZSt4cerr
	movabs	rdx, .L.str.1
	call	_ZStlsISt11char_traitsIcEERSt13basic_ostreamIcT_ES5_PKc
	movabs	rcx, _ZTId
	mov	rcx, qword ptr [rcx + 8]
	lea	rdx, [rcx + 1]
	cmp	byte ptr [rcx], 42
	cmovne	rdx, rcx
	mov	rcx, rax
	call	_ZStlsISt11char_traitsIcEERSt13basic_ostreamIcT_ES5_PKc
	movabs	rdx, .L.str.2
	mov	rcx, rax
	call	_ZStlsISt11char_traitsIcEERSt13basic_ostreamIcT_ES5_PKc
	movabs	rdx, _ZTSN4math6pack2dE
	mov	rcx, rax
	call	_ZStlsISt11char_traitsIcEERSt13basic_ostreamIcT_ES5_PKc
	movabs	rdx, .L.str.10
	mov	rcx, rax
	call	_ZStlsISt11char_traitsIcEERSt13basic_ostreamIcT_ES5_PKc
	movabs	rdx, .L.str.3
	mov	rcx, rax
	call	_ZStlsISt11char_traitsIcEERSt13basic_ostreamIcT_ES5_PKc
	lea	rdx, [rsp + 96]
	mov	rcx, rax
	call	_ZlsIdERSoS0_7printerIT_E
	movabs	rdi, .L.str.4
	mov	rcx, rax
	mov	rdx, rdi
	call	_ZStlsISt11char_traitsIcEERSt13basic_ostreamIcT_ES5_PKc
	movabs	rdx, .L.str.11
	mov	rcx, rax
	call	_ZStlsISt11char_traitsIcEERSt13basic_ostreamIcT_ES5_PKc
	lea	rdx, [rsp + 64]
	mov	rcx, rax
	call	_ZlsIN4math6pack2dEERSoS2_7printerIT_E
	jmp	.LBB5_25
.LBB5_58:
	lea	rsi, [rsp + 8*rsi + 32]
	mov	r14d, r15d
	jmp	.LBB5_29
.LBB5_28:
	lea	rsi, [rsp + 8*rbp + 32]
.LBB5_29:
	movabs	rcx, _ZSt4cerr
	movabs	rdx, .L.str.1
	call	_ZStlsISt11char_traitsIcEERSt13basic_ostreamIcT_ES5_PKc
	movabs	rdx, _ZTSN4math6pack2dE
	mov	rcx, rax
	call	_ZStlsISt11char_traitsIcEERSt13basic_ostreamIcT_ES5_PKc
	movabs	rdx, .L.str.2
	mov	rcx, rax
	call	_ZStlsISt11char_traitsIcEERSt13basic_ostreamIcT_ES5_PKc
	movabs	rcx, _ZTId
	mov	rcx, qword ptr [rcx + 8]
	lea	rdx, [rcx + 1]
	cmp	byte ptr [rcx], 42
	cmovne	rdx, rcx
	mov	rcx, rax
	call	_ZStlsISt11char_traitsIcEERSt13basic_ostreamIcT_ES5_PKc
	movabs	rdx, .L.str.10
	mov	rcx, rax
	call	_ZStlsISt11char_traitsIcEERSt13basic_ostreamIcT_ES5_PKc
	movabs	rdx, .L.str.3
	mov	rcx, rax
	call	_ZStlsISt11char_traitsIcEERSt13basic_ostreamIcT_ES5_PKc
	lea	rdx, [rsp + 64]
	mov	rcx, rax
	call	_ZlsIN4math6pack2dEERSoS2_7printerIT_E
	movabs	rdi, .L.str.4
	mov	rcx, rax
	mov	rdx, rdi
	call	_ZStlsISt11char_traitsIcEERSt13basic_ostreamIcT_ES5_PKc
	movabs	rdx, .L.str.11
	mov	rcx, rax
	call	_ZStlsISt11char_traitsIcEERSt13basic_ostreamIcT_ES5_PKc
	lea	rdx, [rsp + 96]
	mov	rcx, rax
	call	_ZlsIdERSoS0_7printerIT_E
.LBB5_25:
	mov	rcx, rax
	mov	rdx, rdi
	call	_ZStlsISt11char_traitsIcEERSt13basic_ostreamIcT_ES5_PKc
	movabs	rdx, .L.str.5
	mov	rcx, rax
	call	_ZStlsISt11char_traitsIcEERSt13basic_ostreamIcT_ES5_PKc
	lea	rdx, [rsp + 32]
.LBB5_26:
	mov	rcx, rax
	call	_ZlsIN4math6pack2dEERSoS2_7printerIT_E
	mov	rcx, rax
	mov	rdx, rdi
	call	_ZStlsISt11char_traitsIcEERSt13basic_ostreamIcT_ES5_PKc
	movabs	rdx, .L.str.13
.LBB5_13:
	mov	rcx, rax
	call	_ZStlsISt11char_traitsIcEERSt13basic_ostreamIcT_ES5_PKc
	movabs	rdx, .L.str.7
	mov	rcx, rax
	call	_ZStlsISt11char_traitsIcEERSt13basic_ostreamIcT_ES5_PKc
	mov	rcx, rax
	mov	edx, r14d
	call	_ZNSolsEi
	movabs	rdx, .L.str.8
	mov	rcx, rax
	call	_ZStlsISt11char_traitsIcEERSt13basic_ostreamIcT_ES5_PKc
	mov	rcx, rax
	vmovapd	xmm1, xmm6
	call	_ZNSo9_M_insertIdEERSoT_
	movabs	rdx, .L.str.9
	mov	rcx, rax
	call	_ZStlsISt11char_traitsIcEERSt13basic_ostreamIcT_ES5_PKc
	vmovsd	xmm1, qword ptr [rsi]   # xmm1 = mem[0],zero
.LBB5_14:
	mov	rcx, rax
	call	_ZNSo9_M_insertIdEERSoT_
	mov	rcx, rax
	mov	rdx, rdi
.LBB5_15:
	call	_ZStlsISt11char_traitsIcEERSt13basic_ostreamIcT_ES5_PKc
	mov	ecx, 1
	call	exit
	ud2
	.seh_handlerdata
	.section	.text,"xr",discard,_Z12test_pack_spIdN4math6pack2dEEvPKT0_
.Lcfi45:
	.seh_endproc

	.def	 _Z12test_pack_spIN4math6scalarENS0_6pack2dEEvPKT0_;
	.scl	2;
	.type	32;
	.endef
	.section	.text,"xr",discard,_Z12test_pack_spIN4math6scalarENS0_6pack2dEEvPKT0_
	.globl	_Z12test_pack_spIN4math6scalarENS0_6pack2dEEvPKT0_
	.p2align	4, 0x90
_Z12test_pack_spIN4math6scalarENS0_6pack2dEEvPKT0_: # @_Z12test_pack_spIN4math6scalarENS0_6pack2dEEvPKT0_
.Lcfi46:
.seh_proc _Z12test_pack_spIN4math6scalarENS0_6pack2dEEvPKT0_
# BB#0:
	push	r15
.Lcfi47:
	.seh_pushreg 15
	push	r14
.Lcfi48:
	.seh_pushreg 14
	push	rsi
.Lcfi49:
	.seh_pushreg 6
	push	rdi
.Lcfi50:
	.seh_pushreg 7
	push	rbp
.Lcfi51:
	.seh_pushreg 5
	push	rbx
.Lcfi52:
	.seh_pushreg 3
	sub	rsp, 168
.Lcfi53:
	.seh_stackalloc 168
	vmovaps	xmmword ptr [rsp + 144], xmm6 # 16-byte Spill
.Lcfi54:
	.seh_savexmm 6, 144
.Lcfi55:
	.seh_endprologue
	vmovaps	xmm0, xmmword ptr [rcx]
	vmovaps	xmmword ptr [rsp + 48], xmm0
	vmovaps	xmm0, xmmword ptr [rcx]
	vmovaps	xmmword ptr [rsp + 64], xmm0
	vmovapd	xmm0, xmmword ptr [rcx]
	vmovapd	xmmword ptr [rsp + 32], xmm0
	movabs	r9, _ZN6layoutIN4math6pack2dEE1iE
	mov	r15d, dword ptr [r9]
	movsxd	rsi, r15d
	vmovsd	xmm6, qword ptr [rsp + 8*rsi + 48] # xmm6 = mem[0],zero
	vucomisd	xmm6, qword ptr [rsp + 8*rsi + 32]
	jne	.LBB6_1
	jp	.LBB6_1
# BB#2:
	mov	r14d, dword ptr [r9 + 4]
	movsxd	rbp, r14d
	vmovsd	xmm6, qword ptr [rsp + 8*rbp + 48] # xmm6 = mem[0],zero
	vucomisd	xmm6, qword ptr [rsp + 8*rbp + 32]
	jne	.LBB6_3
	jp	.LBB6_3
# BB#73:
	movabs	r8, count
	mov	edi, dword ptr [r8]
	lea	eax, [rdi + 1]
	mov	dword ptr [r8], eax
	vmovaps	xmm0, xmmword ptr [rcx]
	vmovaps	xmmword ptr [rsp + 48], xmm0
	vmovaps	xmm0, xmmword ptr [rcx + 16]
	vmovaps	xmmword ptr [rsp + 64], xmm0
	vmovaps	xmm0, xmmword ptr [rcx]
	vmovaps	xmmword ptr [rsp + 32], xmm0
	vmovaps	xmm0, xmmword ptr [rcx + 16]
	vmovaps	xmmword ptr [rsp + 96], xmm0
	vmovapd	xmm0, xmmword ptr [rsp + 32]
	vmulpd	xmm0, xmm0, xmmword ptr [rsp + 96]
	vmovapd	xmmword ptr [rsp + 80], xmm0
	vmovsd	xmm0, qword ptr [rsp + 8*rsi + 48] # xmm0 = mem[0],zero
	vmulsd	xmm6, xmm0, qword ptr [rsp + 8*rsi + 64]
	vucomisd	xmm6, qword ptr [rsp + 8*rsi + 80]
	jne	.LBB6_74
	jp	.LBB6_74
# BB#5:
	vmovsd	xmm0, qword ptr [rsp + 8*rbp + 48] # xmm0 = mem[0],zero
	vmulsd	xmm6, xmm0, qword ptr [rsp + 8*rbp + 64]
	vucomisd	xmm6, qword ptr [rsp + 8*rbp + 80]
	jne	.LBB6_6
	jp	.LBB6_6
# BB#71:
	lea	rbx, [rcx + 16]
	lea	eax, [rdi + 2]
	mov	dword ptr [r8], eax
	mov	r10, qword ptr [rcx]
	vmovaps	xmm0, xmmword ptr [rbx]
	vmovaps	xmmword ptr [rsp + 48], xmm0
	mov	qword ptr [rsp + 96], r10
	vmovaps	xmm0, xmmword ptr [rbx]
	vmovaps	xmmword ptr [rsp + 64], xmm0
	vmovq	xmm2, r10
	vmovddup	xmm3, xmm2      # xmm3 = xmm2[0,0]
	vmulpd	xmm0, xmm3, xmmword ptr [rsp + 64]
	vmovapd	xmmword ptr [rsp + 32], xmm0
	vmulsd	xmm6, xmm2, qword ptr [rsp + 8*rsi + 48]
	vucomisd	xmm6, qword ptr [rsp + 8*rsi + 32]
	jne	.LBB6_72
	jp	.LBB6_72
# BB#8:
	vmulsd	xmm6, xmm2, qword ptr [rsp + 8*rbp + 48]
	vucomisd	xmm6, qword ptr [rsp + 8*rbp + 32]
	jne	.LBB6_9
	jp	.LBB6_9
# BB#69:
	lea	eax, [rdi + 3]
	mov	dword ptr [r8], eax
	vmovaps	xmm0, xmmword ptr [rcx]
	vmovaps	xmmword ptr [rsp + 48], xmm0
	mov	rdx, qword ptr [rcx + 16]
	vmovaps	xmm0, xmmword ptr [rcx]
	vmovaps	xmmword ptr [rsp + 64], xmm0
	mov	qword ptr [rsp + 96], rdx
	vmovq	xmm0, rdx
	vmovddup	xmm1, xmm0      # xmm1 = xmm0[0,0]
	vmulpd	xmm4, xmm1, xmmword ptr [rsp + 64]
	vmovapd	xmmword ptr [rsp + 32], xmm4
	vmulsd	xmm6, xmm0, qword ptr [rsp + 8*rsi + 48]
	vucomisd	xmm6, qword ptr [rsp + 8*rsi + 32]
	jne	.LBB6_70
	jp	.LBB6_70
# BB#16:
	vmulsd	xmm6, xmm0, qword ptr [rsp + 8*rbp + 48]
	vucomisd	xmm6, qword ptr [rsp + 8*rbp + 32]
	jne	.LBB6_17
	jp	.LBB6_17
# BB#67:
	lea	eax, [rdi + 4]
	mov	dword ptr [r8], eax
	vmovaps	xmm4, xmmword ptr [rcx]
	vmovaps	xmmword ptr [rsp + 48], xmm4
	vmovaps	xmm4, xmmword ptr [rbx]
	vmovaps	xmmword ptr [rsp + 64], xmm4
	vmovaps	xmm4, xmmword ptr [rcx]
	vmovaps	xmmword ptr [rsp + 32], xmm4
	vmovaps	xmm4, xmmword ptr [rbx]
	vmovaps	xmmword ptr [rsp + 96], xmm4
	vmovapd	xmm4, xmmword ptr [rsp + 32]
	vaddpd	xmm4, xmm4, xmmword ptr [rsp + 96]
	vmovapd	xmmword ptr [rsp + 80], xmm4
	vmovsd	xmm4, qword ptr [rsp + 8*rsi + 48] # xmm4 = mem[0],zero
	vaddsd	xmm6, xmm4, qword ptr [rsp + 8*rsi + 64]
	vucomisd	xmm6, qword ptr [rsp + 8*rsi + 80]
	jne	.LBB6_68
	jp	.LBB6_68
# BB#19:
	vmovsd	xmm4, qword ptr [rsp + 8*rbp + 48] # xmm4 = mem[0],zero
	vaddsd	xmm6, xmm4, qword ptr [rsp + 8*rbp + 64]
	vucomisd	xmm6, qword ptr [rsp + 8*rbp + 80]
	jne	.LBB6_20
	jp	.LBB6_20
# BB#65:
	lea	eax, [rdi + 5]
	mov	dword ptr [r8], eax
	vmovaps	xmm4, xmmword ptr [rbx]
	vmovaps	xmmword ptr [rsp + 48], xmm4
	mov	qword ptr [rsp + 96], r10
	vmovapd	xmm4, xmmword ptr [rbx]
	vmovapd	xmmword ptr [rsp + 64], xmm4
	vaddpd	xmm3, xmm3, xmmword ptr [rsp + 64]
	vmovapd	xmmword ptr [rsp + 32], xmm3
	vaddsd	xmm6, xmm2, qword ptr [rsp + 8*rsi + 48]
	vucomisd	xmm6, qword ptr [rsp + 8*rsi + 32]
	jne	.LBB6_66
	jp	.LBB6_66
# BB#22:
	vaddsd	xmm6, xmm2, qword ptr [rsp + 8*rbp + 48]
	vucomisd	xmm6, qword ptr [rsp + 8*rbp + 32]
	jne	.LBB6_23
	jp	.LBB6_23
# BB#63:
	lea	eax, [rdi + 6]
	mov	dword ptr [r8], eax
	vmovaps	xmm2, xmmword ptr [rcx]
	vmovaps	xmmword ptr [rsp + 48], xmm2
	vmovaps	xmm2, xmmword ptr [rcx]
	vmovaps	xmmword ptr [rsp + 64], xmm2
	mov	qword ptr [rsp + 96], rdx
	vaddpd	xmm2, xmm1, xmmword ptr [rsp + 64]
	vmovapd	xmmword ptr [rsp + 32], xmm2
	vaddsd	xmm6, xmm0, qword ptr [rsp + 8*rsi + 48]
	vucomisd	xmm6, qword ptr [rsp + 8*rsi + 32]
	jne	.LBB6_64
	jp	.LBB6_64
# BB#27:
	vaddsd	xmm6, xmm0, qword ptr [rsp + 8*rbp + 48]
	vucomisd	xmm6, qword ptr [rsp + 8*rbp + 32]
	jne	.LBB6_28
	jp	.LBB6_28
# BB#30:
	add	edi, 7
	mov	dword ptr [r8], edi
	vmovaps	xmm2, xmmword ptr [rcx]
	vmovaps	xmmword ptr [rsp + 48], xmm2
	mov	rax, qword ptr [rcx + 32]
	vmovaps	xmm2, xmmword ptr [rcx]
	vmovaps	xmmword ptr [rsp + 64], xmm2
	mov	qword ptr [rsp + 96], rdx
	mov	qword ptr [rsp + 80], rax
	#APP
	# TEST3 a * b + c -- P a = u1.p; S b = u2.d[0]; S c = u3.d[0];
	#NO_APP
	vmovq	xmm2, rax
	vmovddup	xmm3, xmm2      # xmm3 = xmm2[0,0]
	vfmadd132pd	xmm1, xmm3, xmmword ptr [rsp + 64]
	vmovapd	xmmword ptr [rsp + 32], xmm1
	movsxd	rsi, dword ptr [r9]
	vmovsd	xmm6, qword ptr [rsp + 8*rsi + 48] # xmm6 = mem[0],zero
	vfmadd213sd	xmm6, xmm0, xmm2
	vucomisd	xmm6, qword ptr [rsp + 8*rsi + 32]
	jne	.LBB6_32
	jp	.LBB6_32
# BB#31:
	movsxd	rsi, dword ptr [r9 + 4]
	vmovsd	xmm6, qword ptr [rsp + 8*rsi + 48] # xmm6 = mem[0],zero
	vfmadd213sd	xmm6, xmm0, xmm2
	vucomisd	xmm6, qword ptr [rsp + 8*rsi + 32]
	jne	.LBB6_32
	jp	.LBB6_32
# BB#61:
	inc	dword ptr [r8]
	mov	rax, qword ptr [rcx]
	vmovaps	xmm0, xmmword ptr [rbx]
	vmovaps	xmmword ptr [rsp + 48], xmm0
	mov	rdx, qword ptr [rcx + 32]
	mov	qword ptr [rsp + 96], rax
	vmovaps	xmm0, xmmword ptr [rbx]
	vmovaps	xmmword ptr [rsp + 64], xmm0
	mov	qword ptr [rsp + 80], rdx
	#APP
	# TEST3 a * b + c -- S a = u1.d[0]; P b = u2.p; S c = u3.d[0];
	#NO_APP
	vmovq	xmm6, rax
	vmovddup	xmm1, xmm6      # xmm1 = xmm6[0,0]
	vmovq	xmm0, rdx
	vmovddup	xmm2, xmm0      # xmm2 = xmm0[0,0]
	vfmadd231pd	xmm2, xmm1, xmmword ptr [rsp + 64]
	vmovapd	xmmword ptr [rsp + 32], xmm2
	movsxd	rsi, dword ptr [r9]
	vmovapd	xmm1, xmm6
	vfmadd132sd	xmm1, xmm0, qword ptr [rsp + 8*rsi + 48]
	vucomisd	xmm1, qword ptr [rsp + 8*rsi + 32]
	jne	.LBB6_62
	jp	.LBB6_62
# BB#36:
	movsxd	rsi, dword ptr [r9 + 4]
	vfmadd132sd	xmm6, xmm0, qword ptr [rsp + 8*rsi + 48]
	vucomisd	xmm6, qword ptr [rsp + 8*rsi + 32]
	jne	.LBB6_37
	jp	.LBB6_37
# BB#39:
	inc	dword ptr [r8]
	vmovaps	xmm0, xmmword ptr [rcx]
	vmovaps	xmmword ptr [rsp + 48], xmm0
	vmovaps	xmm0, xmmword ptr [rbx]
	vmovaps	xmmword ptr [rsp + 64], xmm0
	mov	rax, qword ptr [rcx + 32]
	vmovaps	xmm0, xmmword ptr [rcx]
	vmovaps	xmmword ptr [rsp + 32], xmm0
	vmovaps	xmm0, xmmword ptr [rbx]
	vmovaps	xmmword ptr [rsp + 96], xmm0
	mov	qword ptr [rsp + 112], rax
	#APP
	# TEST3 a * b + c -- P a = u1.p; P b = u2.p; S c = u3.d[0];
	#NO_APP
	vmovapd	xmm1, xmmword ptr [rsp + 32]
	vmovq	xmm0, rax
	vmovddup	xmm2, xmm0      # xmm2 = xmm0[0,0]
	vfmadd231pd	xmm2, xmm1, xmmword ptr [rsp + 96]
	vmovapd	xmmword ptr [rsp + 80], xmm2
	movsxd	rsi, dword ptr [r9]
	vmovsd	xmm6, qword ptr [rsp + 8*rsi + 48] # xmm6 = mem[0],zero
	vfmadd132sd	xmm6, xmm0, qword ptr [rsp + 8*rsi + 64]
	vucomisd	xmm6, qword ptr [rsp + 8*rsi + 80]
	jne	.LBB6_41
	jp	.LBB6_41
# BB#40:
	movsxd	rsi, dword ptr [r9 + 4]
	vmovsd	xmm6, qword ptr [rsp + 8*rsi + 48] # xmm6 = mem[0],zero
	vfmadd132sd	xmm6, xmm0, qword ptr [rsp + 8*rsi + 64]
	vucomisd	xmm6, qword ptr [rsp + 8*rsi + 80]
	jne	.LBB6_41
	jp	.LBB6_41
# BB#59:
	inc	dword ptr [r8]
	mov	rax, qword ptr [rcx]
	mov	rdx, qword ptr [rcx + 16]
	vmovaps	xmm0, xmmword ptr [rcx + 32]
	vmovaps	xmmword ptr [rsp + 48], xmm0
	mov	qword ptr [rsp + 96], rax
	mov	qword ptr [rsp + 80], rdx
	vmovaps	xmm0, xmmword ptr [rcx + 32]
	vmovaps	xmmword ptr [rsp + 64], xmm0
	#APP
	# TEST3 a * b + c -- S a = u1.d[0]; S b = u2.d[0]; P c = u3.p;
	#NO_APP
	vmovq	xmm6, rax
	vmovq	xmm0, rdx
	vmulsd	xmm1, xmm6, xmm0
	vmovddup	xmm1, xmm1      # xmm1 = xmm1[0,0]
	vaddpd	xmm1, xmm1, xmmword ptr [rsp + 64]
	vmovapd	xmmword ptr [rsp + 32], xmm1
	movsxd	rsi, dword ptr [r9]
	vmovapd	xmm1, xmm6
	vfmadd213sd	xmm1, xmm0, qword ptr [rsp + 8*rsi + 48]
	vucomisd	xmm1, qword ptr [rsp + 8*rsi + 32]
	jne	.LBB6_60
	jp	.LBB6_60
# BB#42:
	movsxd	rsi, dword ptr [r9 + 4]
	vfmadd213sd	xmm6, xmm0, qword ptr [rsp + 8*rsi + 48]
	vucomisd	xmm6, qword ptr [rsp + 8*rsi + 32]
	jne	.LBB6_43
	jp	.LBB6_43
# BB#45:
	lea	rdx, [rcx + 32]
	inc	dword ptr [r8]
	vmovaps	xmm0, xmmword ptr [rcx]
	vmovaps	xmmword ptr [rsp + 48], xmm0
	mov	rax, qword ptr [rcx + 16]
	vmovaps	xmm0, xmmword ptr [rdx]
	vmovaps	xmmword ptr [rsp + 64], xmm0
	vmovaps	xmm0, xmmword ptr [rcx]
	vmovaps	xmmword ptr [rsp + 32], xmm0
	mov	qword ptr [rsp + 112], rax
	vmovaps	xmm0, xmmword ptr [rdx]
	vmovaps	xmmword ptr [rsp + 96], xmm0
	#APP
	# TEST3 a * b + c -- P a = u1.p; S b = u2.d[0]; P c = u3.p;
	#NO_APP
	vmovapd	xmm1, xmmword ptr [rsp + 32]
	vmovq	xmm0, rax
	vmovddup	xmm2, xmm0      # xmm2 = xmm0[0,0]
	vfmadd213pd	xmm2, xmm1, xmmword ptr [rsp + 96]
	vmovapd	xmmword ptr [rsp + 80], xmm2
	movsxd	rsi, dword ptr [r9]
	vmovsd	xmm6, qword ptr [rsp + 8*rsi + 48] # xmm6 = mem[0],zero
	vfmadd213sd	xmm6, xmm0, qword ptr [rsp + 8*rsi + 64]
	vucomisd	xmm6, qword ptr [rsp + 8*rsi + 80]
	jne	.LBB6_47
	jp	.LBB6_47
# BB#46:
	movsxd	rsi, dword ptr [r9 + 4]
	vmovsd	xmm6, qword ptr [rsp + 8*rsi + 48] # xmm6 = mem[0],zero
	vfmadd213sd	xmm6, xmm0, qword ptr [rsp + 8*rsi + 64]
	vucomisd	xmm6, qword ptr [rsp + 8*rsi + 80]
	jne	.LBB6_47
	jp	.LBB6_47
# BB#57:
	inc	dword ptr [r8]
	mov	rax, qword ptr [rcx]
	vmovaps	xmm0, xmmword ptr [rbx]
	vmovaps	xmmword ptr [rsp + 48], xmm0
	vmovaps	xmm0, xmmword ptr [rdx]
	vmovaps	xmmword ptr [rsp + 64], xmm0
	mov	qword ptr [rsp + 112], rax
	vmovaps	xmm0, xmmword ptr [rbx]
	vmovaps	xmmword ptr [rsp + 32], xmm0
	vmovaps	xmm0, xmmword ptr [rdx]
	vmovaps	xmmword ptr [rsp + 96], xmm0
	#APP
	# TEST3 a * b + c -- S a = u1.d[0]; P b = u2.p; P c = u3.p;
	#NO_APP
	vmovq	xmm6, rax
	vmovddup	xmm0, xmm6      # xmm0 = xmm6[0,0]
	vmovapd	xmm1, xmmword ptr [rsp + 32]
	vfmadd213pd	xmm1, xmm0, xmmword ptr [rsp + 96]
	vmovapd	xmmword ptr [rsp + 80], xmm1
	movsxd	rsi, dword ptr [r9]
	vmovsd	xmm1, qword ptr [rsp + 8*rsi + 64] # xmm1 = mem[0],zero
	vmovapd	xmm0, xmm6
	vfmadd132sd	xmm0, xmm1, qword ptr [rsp + 8*rsi + 48]
	vucomisd	xmm0, qword ptr [rsp + 8*rsi + 80]
	jne	.LBB6_58
	jp	.LBB6_58
# BB#50:
	movsxd	rsi, dword ptr [r9 + 4]
	vmovsd	xmm0, qword ptr [rsp + 8*rsi + 64] # xmm0 = mem[0],zero
	vfmadd132sd	xmm6, xmm0, qword ptr [rsp + 8*rsi + 48]
	vucomisd	xmm6, qword ptr [rsp + 8*rsi + 80]
	jne	.LBB6_51
	jp	.LBB6_51
# BB#53:
	inc	dword ptr [r8]
	vmovaps	xmm0, xmmword ptr [rcx]
	vmovaps	xmmword ptr [rsp + 48], xmm0
	vmovaps	xmm0, xmmword ptr [rbx]
	vmovaps	xmmword ptr [rsp + 64], xmm0
	vmovaps	xmm0, xmmword ptr [rdx]
	vmovaps	xmmword ptr [rsp + 32], xmm0
	vmovaps	xmm0, xmmword ptr [rcx]
	vmovaps	xmmword ptr [rsp + 96], xmm0
	vmovaps	xmm0, xmmword ptr [rbx]
	vmovaps	xmmword ptr [rsp + 80], xmm0
	vmovaps	xmm0, xmmword ptr [rdx]
	vmovaps	xmmword ptr [rsp + 112], xmm0
	#APP
	# TEST3 a * b + c -- P a = u1.p; P b = u2.p; P c = u3.p;
	#NO_APP
	vmovapd	xmm0, xmmword ptr [rsp + 96]
	vmovapd	xmm1, xmmword ptr [rsp + 80]
	vfmadd213pd	xmm1, xmm0, xmmword ptr [rsp + 112]
	vmovapd	xmmword ptr [rsp + 128], xmm1
	movsxd	rsi, dword ptr [r9]
	vmovsd	xmm6, qword ptr [rsp + 8*rsi + 48] # xmm6 = mem[0],zero
	vmovsd	xmm0, qword ptr [rsp + 8*rsi + 32] # xmm0 = mem[0],zero
	vfmadd132sd	xmm6, xmm0, qword ptr [rsp + 8*rsi + 64]
	vucomisd	xmm6, qword ptr [rsp + 8*rsi + 128]
	jne	.LBB6_55
	jp	.LBB6_55
# BB#54:
	movsxd	rsi, dword ptr [r9 + 4]
	vmovsd	xmm6, qword ptr [rsp + 8*rsi + 48] # xmm6 = mem[0],zero
	vmovsd	xmm0, qword ptr [rsp + 8*rsi + 32] # xmm0 = mem[0],zero
	vfmadd132sd	xmm6, xmm0, qword ptr [rsp + 8*rsi + 64]
	vucomisd	xmm6, qword ptr [rsp + 8*rsi + 128]
	jne	.LBB6_55
	jp	.LBB6_55
# BB#56:
	inc	dword ptr [r8]
	vmovaps	xmm6, xmmword ptr [rsp + 144] # 16-byte Reload
	add	rsp, 168
	pop	rbx
	pop	rbp
	pop	rdi
	pop	rsi
	pop	r14
	pop	r15
	ret
.LBB6_32:
	lea	r14, [rsp + 8*rsi + 32]
	movabs	rcx, _ZSt4cerr
	movabs	rdx, .L.str.1
	call	_ZStlsISt11char_traitsIcEERSt13basic_ostreamIcT_ES5_PKc
	movabs	rdx, _ZTSN4math6pack2dE
	mov	rcx, rax
	call	_ZStlsISt11char_traitsIcEERSt13basic_ostreamIcT_ES5_PKc
	movabs	rdx, .L.str.2
	mov	rcx, rax
	call	_ZStlsISt11char_traitsIcEERSt13basic_ostreamIcT_ES5_PKc
	movabs	rdi, _ZTSN4math6scalarE
	mov	rcx, rax
	mov	rdx, rdi
	call	_ZStlsISt11char_traitsIcEERSt13basic_ostreamIcT_ES5_PKc
	movabs	rbx, .L.str.10
	mov	rcx, rax
	mov	rdx, rbx
	call	_ZStlsISt11char_traitsIcEERSt13basic_ostreamIcT_ES5_PKc
	mov	rcx, rax
	mov	rdx, rdi
	call	_ZStlsISt11char_traitsIcEERSt13basic_ostreamIcT_ES5_PKc
	mov	rcx, rax
	mov	rdx, rbx
	call	_ZStlsISt11char_traitsIcEERSt13basic_ostreamIcT_ES5_PKc
	movabs	rdx, .L.str.3
	mov	rcx, rax
	call	_ZStlsISt11char_traitsIcEERSt13basic_ostreamIcT_ES5_PKc
	lea	rdx, [rsp + 64]
	mov	rcx, rax
	call	_ZlsIN4math6pack2dEERSoS2_7printerIT_E
	movabs	rdi, .L.str.4
	mov	rcx, rax
	mov	rdx, rdi
	call	_ZStlsISt11char_traitsIcEERSt13basic_ostreamIcT_ES5_PKc
	movabs	rbx, .L.str.11
	mov	rcx, rax
	mov	rdx, rbx
	call	_ZStlsISt11char_traitsIcEERSt13basic_ostreamIcT_ES5_PKc
	lea	rdx, [rsp + 96]
	mov	rcx, rax
	call	_ZlsIN4math6scalarEERSoS2_7printerIT_E
	jmp	.LBB6_33
.LBB6_41:
	lea	r14, [rsp + 8*rsi + 80]
	movabs	rcx, _ZSt4cerr
	movabs	rdx, .L.str.1
	call	_ZStlsISt11char_traitsIcEERSt13basic_ostreamIcT_ES5_PKc
	movabs	rdi, _ZTSN4math6pack2dE
	mov	rcx, rax
	mov	rdx, rdi
	call	_ZStlsISt11char_traitsIcEERSt13basic_ostreamIcT_ES5_PKc
	movabs	rdx, .L.str.2
	mov	rcx, rax
	call	_ZStlsISt11char_traitsIcEERSt13basic_ostreamIcT_ES5_PKc
	mov	rcx, rax
	mov	rdx, rdi
	call	_ZStlsISt11char_traitsIcEERSt13basic_ostreamIcT_ES5_PKc
	movabs	rdi, .L.str.10
	mov	rcx, rax
	mov	rdx, rdi
	call	_ZStlsISt11char_traitsIcEERSt13basic_ostreamIcT_ES5_PKc
	movabs	rdx, _ZTSN4math6scalarE
	mov	rcx, rax
	call	_ZStlsISt11char_traitsIcEERSt13basic_ostreamIcT_ES5_PKc
	mov	rcx, rax
	mov	rdx, rdi
	call	_ZStlsISt11char_traitsIcEERSt13basic_ostreamIcT_ES5_PKc
	movabs	rdx, .L.str.3
	mov	rcx, rax
	call	_ZStlsISt11char_traitsIcEERSt13basic_ostreamIcT_ES5_PKc
	lea	rdx, [rsp + 32]
	mov	rcx, rax
	call	_ZlsIN4math6pack2dEERSoS2_7printerIT_E
	movabs	rdi, .L.str.4
	mov	rcx, rax
	mov	rdx, rdi
	call	_ZStlsISt11char_traitsIcEERSt13basic_ostreamIcT_ES5_PKc
	movabs	rbx, .L.str.11
	mov	rcx, rax
	mov	rdx, rbx
	call	_ZStlsISt11char_traitsIcEERSt13basic_ostreamIcT_ES5_PKc
	lea	rdx, [rsp + 96]
	mov	rcx, rax
	call	_ZlsIN4math6pack2dEERSoS2_7printerIT_E
	mov	rcx, rax
	mov	rdx, rdi
	call	_ZStlsISt11char_traitsIcEERSt13basic_ostreamIcT_ES5_PKc
	mov	rcx, rax
	mov	rdx, rbx
	call	_ZStlsISt11char_traitsIcEERSt13basic_ostreamIcT_ES5_PKc
	lea	rdx, [rsp + 112]
	mov	rcx, rax
	call	_ZlsIN4math6scalarEERSoS2_7printerIT_E
	jmp	.LBB6_49
.LBB6_47:
	lea	r14, [rsp + 8*rsi + 80]
	movabs	rcx, _ZSt4cerr
	movabs	rdx, .L.str.1
	call	_ZStlsISt11char_traitsIcEERSt13basic_ostreamIcT_ES5_PKc
	movabs	rdi, _ZTSN4math6pack2dE
	mov	rcx, rax
	mov	rdx, rdi
	call	_ZStlsISt11char_traitsIcEERSt13basic_ostreamIcT_ES5_PKc
	movabs	rdx, .L.str.2
	mov	rcx, rax
	call	_ZStlsISt11char_traitsIcEERSt13basic_ostreamIcT_ES5_PKc
	movabs	rdx, _ZTSN4math6scalarE
	mov	rcx, rax
	call	_ZStlsISt11char_traitsIcEERSt13basic_ostreamIcT_ES5_PKc
	movabs	rbx, .L.str.10
	mov	rcx, rax
	mov	rdx, rbx
	call	_ZStlsISt11char_traitsIcEERSt13basic_ostreamIcT_ES5_PKc
	mov	rcx, rax
	mov	rdx, rdi
	call	_ZStlsISt11char_traitsIcEERSt13basic_ostreamIcT_ES5_PKc
	mov	rcx, rax
	mov	rdx, rbx
	call	_ZStlsISt11char_traitsIcEERSt13basic_ostreamIcT_ES5_PKc
	movabs	rdx, .L.str.3
	mov	rcx, rax
	call	_ZStlsISt11char_traitsIcEERSt13basic_ostreamIcT_ES5_PKc
	lea	rdx, [rsp + 32]
	mov	rcx, rax
	call	_ZlsIN4math6pack2dEERSoS2_7printerIT_E
	movabs	rdi, .L.str.4
	mov	rcx, rax
	mov	rdx, rdi
	call	_ZStlsISt11char_traitsIcEERSt13basic_ostreamIcT_ES5_PKc
	movabs	rbx, .L.str.11
	mov	rcx, rax
	mov	rdx, rbx
	call	_ZStlsISt11char_traitsIcEERSt13basic_ostreamIcT_ES5_PKc
	lea	rdx, [rsp + 112]
	mov	rcx, rax
	call	_ZlsIN4math6scalarEERSoS2_7printerIT_E
	jmp	.LBB6_48
.LBB6_55:
	lea	r14, [rsp + 8*rsi + 128]
	movabs	rcx, _ZSt4cerr
	movabs	rdx, .L.str.1
	call	_ZStlsISt11char_traitsIcEERSt13basic_ostreamIcT_ES5_PKc
	movabs	rdi, _ZTSN4math6pack2dE
	mov	rcx, rax
	mov	rdx, rdi
	call	_ZStlsISt11char_traitsIcEERSt13basic_ostreamIcT_ES5_PKc
	movabs	rdx, .L.str.2
	mov	rcx, rax
	call	_ZStlsISt11char_traitsIcEERSt13basic_ostreamIcT_ES5_PKc
	mov	rcx, rax
	mov	rdx, rdi
	call	_ZStlsISt11char_traitsIcEERSt13basic_ostreamIcT_ES5_PKc
	movabs	rbx, .L.str.10
	mov	rcx, rax
	mov	rdx, rbx
	call	_ZStlsISt11char_traitsIcEERSt13basic_ostreamIcT_ES5_PKc
	mov	rcx, rax
	mov	rdx, rdi
	call	_ZStlsISt11char_traitsIcEERSt13basic_ostreamIcT_ES5_PKc
	mov	rcx, rax
	mov	rdx, rbx
	call	_ZStlsISt11char_traitsIcEERSt13basic_ostreamIcT_ES5_PKc
	movabs	rdx, .L.str.3
	mov	rcx, rax
	call	_ZStlsISt11char_traitsIcEERSt13basic_ostreamIcT_ES5_PKc
	lea	rdx, [rsp + 96]
	mov	rcx, rax
	call	_ZlsIN4math6pack2dEERSoS2_7printerIT_E
	movabs	rdi, .L.str.4
	mov	rcx, rax
	mov	rdx, rdi
	call	_ZStlsISt11char_traitsIcEERSt13basic_ostreamIcT_ES5_PKc
	movabs	rbx, .L.str.11
	mov	rcx, rax
	mov	rdx, rbx
	call	_ZStlsISt11char_traitsIcEERSt13basic_ostreamIcT_ES5_PKc
	lea	rdx, [rsp + 80]
	mov	rcx, rax
	call	_ZlsIN4math6pack2dEERSoS2_7printerIT_E
	mov	rcx, rax
	mov	rdx, rdi
	call	_ZStlsISt11char_traitsIcEERSt13basic_ostreamIcT_ES5_PKc
	mov	rcx, rax
	mov	rdx, rbx
	call	_ZStlsISt11char_traitsIcEERSt13basic_ostreamIcT_ES5_PKc
	lea	rdx, [rsp + 112]
	mov	rcx, rax
	call	_ZlsIN4math6pack2dEERSoS2_7printerIT_E
	mov	rcx, rax
	mov	rdx, rdi
	call	_ZStlsISt11char_traitsIcEERSt13basic_ostreamIcT_ES5_PKc
	movabs	rdx, .L.str.5
	mov	rcx, rax
	call	_ZStlsISt11char_traitsIcEERSt13basic_ostreamIcT_ES5_PKc
	lea	rdx, [rsp + 128]
	jmp	.LBB6_35
.LBB6_1:
	lea	rdi, [rsp + 8*rsi + 32]
	jmp	.LBB6_4
.LBB6_3:
	lea	rdi, [rsp + 8*rbp + 32]
	mov	r15d, r14d
.LBB6_4:
	movabs	rcx, _ZSt4cerr
	movabs	rdx, .L.str.1
	call	_ZStlsISt11char_traitsIcEERSt13basic_ostreamIcT_ES5_PKc
	movabs	rdx, _ZTSN4math6pack2dE
	mov	rcx, rax
	call	_ZStlsISt11char_traitsIcEERSt13basic_ostreamIcT_ES5_PKc
	movabs	rdx, .L.str.2
	mov	rcx, rax
	call	_ZStlsISt11char_traitsIcEERSt13basic_ostreamIcT_ES5_PKc
	movabs	rdx, .L.str.3
	mov	rcx, rax
	call	_ZStlsISt11char_traitsIcEERSt13basic_ostreamIcT_ES5_PKc
	lea	rdx, [rsp + 64]
	mov	rcx, rax
	call	_ZlsIN4math6pack2dEERSoS2_7printerIT_E
	movabs	rsi, .L.str.4
	mov	rcx, rax
	mov	rdx, rsi
	call	_ZStlsISt11char_traitsIcEERSt13basic_ostreamIcT_ES5_PKc
	movabs	rdx, .L.str.5
	mov	rcx, rax
	call	_ZStlsISt11char_traitsIcEERSt13basic_ostreamIcT_ES5_PKc
	lea	rdx, [rsp + 32]
	mov	rcx, rax
	call	_ZlsIN4math6pack2dEERSoS2_7printerIT_E
	mov	rcx, rax
	mov	rdx, rsi
	call	_ZStlsISt11char_traitsIcEERSt13basic_ostreamIcT_ES5_PKc
	movabs	rdx, .L.str.6
	mov	rcx, rax
	call	_ZStlsISt11char_traitsIcEERSt13basic_ostreamIcT_ES5_PKc
	movabs	rdx, .L.str.7
	mov	rcx, rax
	call	_ZStlsISt11char_traitsIcEERSt13basic_ostreamIcT_ES5_PKc
	mov	rcx, rax
	mov	edx, r15d
	call	_ZNSolsEi
	movabs	rdx, .L.str.8
	mov	rcx, rax
	call	_ZStlsISt11char_traitsIcEERSt13basic_ostreamIcT_ES5_PKc
	mov	rcx, rax
	vmovapd	xmm1, xmm6
	call	_ZNSo9_M_insertIdEERSoT_
	movabs	rdx, .L.str.9
	mov	rcx, rax
	call	_ZStlsISt11char_traitsIcEERSt13basic_ostreamIcT_ES5_PKc
	vmovsd	xmm1, qword ptr [rdi]   # xmm1 = mem[0],zero
	mov	rcx, rax
	call	_ZNSo9_M_insertIdEERSoT_
	mov	rcx, rax
	mov	rdx, rsi
	jmp	.LBB6_15
.LBB6_74:
	lea	rsi, [rsp + 8*rsi + 80]
	mov	r14d, r15d
	jmp	.LBB6_7
.LBB6_6:
	lea	rsi, [rsp + 8*rbp + 80]
.LBB6_7:
	movabs	rcx, _ZSt4cerr
	movabs	rdx, .L.str.1
	call	_ZStlsISt11char_traitsIcEERSt13basic_ostreamIcT_ES5_PKc
	movabs	rdi, _ZTSN4math6pack2dE
	mov	rcx, rax
	mov	rdx, rdi
	call	_ZStlsISt11char_traitsIcEERSt13basic_ostreamIcT_ES5_PKc
	movabs	rdx, .L.str.2
	mov	rcx, rax
	call	_ZStlsISt11char_traitsIcEERSt13basic_ostreamIcT_ES5_PKc
	mov	rcx, rax
	mov	rdx, rdi
	call	_ZStlsISt11char_traitsIcEERSt13basic_ostreamIcT_ES5_PKc
	movabs	rdx, .L.str.10
	mov	rcx, rax
	call	_ZStlsISt11char_traitsIcEERSt13basic_ostreamIcT_ES5_PKc
	movabs	rdx, .L.str.3
	mov	rcx, rax
	call	_ZStlsISt11char_traitsIcEERSt13basic_ostreamIcT_ES5_PKc
	lea	rdx, [rsp + 32]
	mov	rcx, rax
	call	_ZlsIN4math6pack2dEERSoS2_7printerIT_E
	movabs	rdi, .L.str.4
	mov	rcx, rax
	mov	rdx, rdi
	call	_ZStlsISt11char_traitsIcEERSt13basic_ostreamIcT_ES5_PKc
	movabs	rdx, .L.str.11
	mov	rcx, rax
	call	_ZStlsISt11char_traitsIcEERSt13basic_ostreamIcT_ES5_PKc
	lea	rdx, [rsp + 96]
	mov	rcx, rax
	call	_ZlsIN4math6pack2dEERSoS2_7printerIT_E
	mov	rcx, rax
	mov	rdx, rdi
	call	_ZStlsISt11char_traitsIcEERSt13basic_ostreamIcT_ES5_PKc
	movabs	rdx, .L.str.5
	mov	rcx, rax
	call	_ZStlsISt11char_traitsIcEERSt13basic_ostreamIcT_ES5_PKc
	lea	rdx, [rsp + 80]
	jmp	.LBB6_12
.LBB6_72:
	lea	rsi, [rsp + 8*rsi + 32]
	mov	r14d, r15d
	jmp	.LBB6_10
.LBB6_9:
	lea	rsi, [rsp + 8*rbp + 32]
.LBB6_10:
	movabs	rcx, _ZSt4cerr
	movabs	rdx, .L.str.1
	call	_ZStlsISt11char_traitsIcEERSt13basic_ostreamIcT_ES5_PKc
	movabs	rdx, _ZTSN4math6scalarE
	mov	rcx, rax
	call	_ZStlsISt11char_traitsIcEERSt13basic_ostreamIcT_ES5_PKc
	movabs	rdx, .L.str.2
	mov	rcx, rax
	call	_ZStlsISt11char_traitsIcEERSt13basic_ostreamIcT_ES5_PKc
	movabs	rdx, _ZTSN4math6pack2dE
	mov	rcx, rax
	call	_ZStlsISt11char_traitsIcEERSt13basic_ostreamIcT_ES5_PKc
	movabs	rdx, .L.str.10
	mov	rcx, rax
	call	_ZStlsISt11char_traitsIcEERSt13basic_ostreamIcT_ES5_PKc
	movabs	rdx, .L.str.3
	mov	rcx, rax
	call	_ZStlsISt11char_traitsIcEERSt13basic_ostreamIcT_ES5_PKc
	lea	rdx, [rsp + 96]
	mov	rcx, rax
	call	_ZlsIN4math6scalarEERSoS2_7printerIT_E
	movabs	rdi, .L.str.4
	mov	rcx, rax
	mov	rdx, rdi
	call	_ZStlsISt11char_traitsIcEERSt13basic_ostreamIcT_ES5_PKc
	movabs	rdx, .L.str.11
	mov	rcx, rax
	call	_ZStlsISt11char_traitsIcEERSt13basic_ostreamIcT_ES5_PKc
	lea	rdx, [rsp + 64]
	mov	rcx, rax
	call	_ZlsIN4math6pack2dEERSoS2_7printerIT_E
	jmp	.LBB6_11
.LBB6_70:
	lea	rsi, [rsp + 8*rsi + 32]
	mov	r14d, r15d
	jmp	.LBB6_18
.LBB6_17:
	lea	rsi, [rsp + 8*rbp + 32]
.LBB6_18:
	movabs	rcx, _ZSt4cerr
	movabs	rdx, .L.str.1
	call	_ZStlsISt11char_traitsIcEERSt13basic_ostreamIcT_ES5_PKc
	movabs	rdx, _ZTSN4math6pack2dE
	mov	rcx, rax
	call	_ZStlsISt11char_traitsIcEERSt13basic_ostreamIcT_ES5_PKc
	movabs	rdx, .L.str.2
	mov	rcx, rax
	call	_ZStlsISt11char_traitsIcEERSt13basic_ostreamIcT_ES5_PKc
	movabs	rdx, _ZTSN4math6scalarE
	mov	rcx, rax
	call	_ZStlsISt11char_traitsIcEERSt13basic_ostreamIcT_ES5_PKc
	movabs	rdx, .L.str.10
	mov	rcx, rax
	call	_ZStlsISt11char_traitsIcEERSt13basic_ostreamIcT_ES5_PKc
	movabs	rdx, .L.str.3
	mov	rcx, rax
	call	_ZStlsISt11char_traitsIcEERSt13basic_ostreamIcT_ES5_PKc
	lea	rdx, [rsp + 64]
	mov	rcx, rax
	call	_ZlsIN4math6pack2dEERSoS2_7printerIT_E
	movabs	rdi, .L.str.4
	mov	rcx, rax
	mov	rdx, rdi
	call	_ZStlsISt11char_traitsIcEERSt13basic_ostreamIcT_ES5_PKc
	movabs	rdx, .L.str.11
	mov	rcx, rax
	call	_ZStlsISt11char_traitsIcEERSt13basic_ostreamIcT_ES5_PKc
	lea	rdx, [rsp + 96]
	mov	rcx, rax
	call	_ZlsIN4math6scalarEERSoS2_7printerIT_E
.LBB6_11:
	mov	rcx, rax
	mov	rdx, rdi
	call	_ZStlsISt11char_traitsIcEERSt13basic_ostreamIcT_ES5_PKc
	movabs	rdx, .L.str.5
	mov	rcx, rax
	call	_ZStlsISt11char_traitsIcEERSt13basic_ostreamIcT_ES5_PKc
	lea	rdx, [rsp + 32]
.LBB6_12:
	mov	rcx, rax
	call	_ZlsIN4math6pack2dEERSoS2_7printerIT_E
	mov	rcx, rax
	mov	rdx, rdi
	call	_ZStlsISt11char_traitsIcEERSt13basic_ostreamIcT_ES5_PKc
	movabs	rdx, .L.str.12
	jmp	.LBB6_13
.LBB6_68:
	lea	rsi, [rsp + 8*rsi + 80]
	mov	r14d, r15d
	jmp	.LBB6_21
.LBB6_20:
	lea	rsi, [rsp + 8*rbp + 80]
.LBB6_21:
	movabs	rcx, _ZSt4cerr
	movabs	rdx, .L.str.1
	call	_ZStlsISt11char_traitsIcEERSt13basic_ostreamIcT_ES5_PKc
	movabs	rdi, _ZTSN4math6pack2dE
	mov	rcx, rax
	mov	rdx, rdi
	call	_ZStlsISt11char_traitsIcEERSt13basic_ostreamIcT_ES5_PKc
	movabs	rdx, .L.str.2
	mov	rcx, rax
	call	_ZStlsISt11char_traitsIcEERSt13basic_ostreamIcT_ES5_PKc
	mov	rcx, rax
	mov	rdx, rdi
	call	_ZStlsISt11char_traitsIcEERSt13basic_ostreamIcT_ES5_PKc
	movabs	rdx, .L.str.10
	mov	rcx, rax
	call	_ZStlsISt11char_traitsIcEERSt13basic_ostreamIcT_ES5_PKc
	movabs	rdx, .L.str.3
	mov	rcx, rax
	call	_ZStlsISt11char_traitsIcEERSt13basic_ostreamIcT_ES5_PKc
	lea	rdx, [rsp + 32]
	mov	rcx, rax
	call	_ZlsIN4math6pack2dEERSoS2_7printerIT_E
	movabs	rdi, .L.str.4
	mov	rcx, rax
	mov	rdx, rdi
	call	_ZStlsISt11char_traitsIcEERSt13basic_ostreamIcT_ES5_PKc
	movabs	rdx, .L.str.11
	mov	rcx, rax
	call	_ZStlsISt11char_traitsIcEERSt13basic_ostreamIcT_ES5_PKc
	lea	rdx, [rsp + 96]
	mov	rcx, rax
	call	_ZlsIN4math6pack2dEERSoS2_7printerIT_E
	mov	rcx, rax
	mov	rdx, rdi
	call	_ZStlsISt11char_traitsIcEERSt13basic_ostreamIcT_ES5_PKc
	movabs	rdx, .L.str.5
	mov	rcx, rax
	call	_ZStlsISt11char_traitsIcEERSt13basic_ostreamIcT_ES5_PKc
	lea	rdx, [rsp + 80]
	jmp	.LBB6_26
.LBB6_66:
	lea	rsi, [rsp + 8*rsi + 32]
	mov	r14d, r15d
	jmp	.LBB6_24
.LBB6_23:
	lea	rsi, [rsp + 8*rbp + 32]
.LBB6_24:
	movabs	rcx, _ZSt4cerr
	movabs	rdx, .L.str.1
	call	_ZStlsISt11char_traitsIcEERSt13basic_ostreamIcT_ES5_PKc
	movabs	rdx, _ZTSN4math6scalarE
	mov	rcx, rax
	call	_ZStlsISt11char_traitsIcEERSt13basic_ostreamIcT_ES5_PKc
	movabs	rdx, .L.str.2
	mov	rcx, rax
	call	_ZStlsISt11char_traitsIcEERSt13basic_ostreamIcT_ES5_PKc
	movabs	rdx, _ZTSN4math6pack2dE
	mov	rcx, rax
	call	_ZStlsISt11char_traitsIcEERSt13basic_ostreamIcT_ES5_PKc
	movabs	rdx, .L.str.10
	mov	rcx, rax
	call	_ZStlsISt11char_traitsIcEERSt13basic_ostreamIcT_ES5_PKc
	movabs	rdx, .L.str.3
	mov	rcx, rax
	call	_ZStlsISt11char_traitsIcEERSt13basic_ostreamIcT_ES5_PKc
	lea	rdx, [rsp + 96]
	mov	rcx, rax
	call	_ZlsIN4math6scalarEERSoS2_7printerIT_E
	movabs	rdi, .L.str.4
	mov	rcx, rax
	mov	rdx, rdi
	call	_ZStlsISt11char_traitsIcEERSt13basic_ostreamIcT_ES5_PKc
	movabs	rdx, .L.str.11
	mov	rcx, rax
	call	_ZStlsISt11char_traitsIcEERSt13basic_ostreamIcT_ES5_PKc
	lea	rdx, [rsp + 64]
	mov	rcx, rax
	call	_ZlsIN4math6pack2dEERSoS2_7printerIT_E
	jmp	.LBB6_25
.LBB6_64:
	lea	rsi, [rsp + 8*rsi + 32]
	mov	r14d, r15d
	jmp	.LBB6_29
.LBB6_28:
	lea	rsi, [rsp + 8*rbp + 32]
.LBB6_29:
	movabs	rcx, _ZSt4cerr
	movabs	rdx, .L.str.1
	call	_ZStlsISt11char_traitsIcEERSt13basic_ostreamIcT_ES5_PKc
	movabs	rdx, _ZTSN4math6pack2dE
	mov	rcx, rax
	call	_ZStlsISt11char_traitsIcEERSt13basic_ostreamIcT_ES5_PKc
	movabs	rdx, .L.str.2
	mov	rcx, rax
	call	_ZStlsISt11char_traitsIcEERSt13basic_ostreamIcT_ES5_PKc
	movabs	rdx, _ZTSN4math6scalarE
	mov	rcx, rax
	call	_ZStlsISt11char_traitsIcEERSt13basic_ostreamIcT_ES5_PKc
	movabs	rdx, .L.str.10
	mov	rcx, rax
	call	_ZStlsISt11char_traitsIcEERSt13basic_ostreamIcT_ES5_PKc
	movabs	rdx, .L.str.3
	mov	rcx, rax
	call	_ZStlsISt11char_traitsIcEERSt13basic_ostreamIcT_ES5_PKc
	lea	rdx, [rsp + 64]
	mov	rcx, rax
	call	_ZlsIN4math6pack2dEERSoS2_7printerIT_E
	movabs	rdi, .L.str.4
	mov	rcx, rax
	mov	rdx, rdi
	call	_ZStlsISt11char_traitsIcEERSt13basic_ostreamIcT_ES5_PKc
	movabs	rdx, .L.str.11
	mov	rcx, rax
	call	_ZStlsISt11char_traitsIcEERSt13basic_ostreamIcT_ES5_PKc
	lea	rdx, [rsp + 96]
	mov	rcx, rax
	call	_ZlsIN4math6scalarEERSoS2_7printerIT_E
.LBB6_25:
	mov	rcx, rax
	mov	rdx, rdi
	call	_ZStlsISt11char_traitsIcEERSt13basic_ostreamIcT_ES5_PKc
	movabs	rdx, .L.str.5
	mov	rcx, rax
	call	_ZStlsISt11char_traitsIcEERSt13basic_ostreamIcT_ES5_PKc
	lea	rdx, [rsp + 32]
.LBB6_26:
	mov	rcx, rax
	call	_ZlsIN4math6pack2dEERSoS2_7printerIT_E
	mov	rcx, rax
	mov	rdx, rdi
	call	_ZStlsISt11char_traitsIcEERSt13basic_ostreamIcT_ES5_PKc
	movabs	rdx, .L.str.13
.LBB6_13:
	mov	rcx, rax
	call	_ZStlsISt11char_traitsIcEERSt13basic_ostreamIcT_ES5_PKc
	movabs	rdx, .L.str.7
	mov	rcx, rax
	call	_ZStlsISt11char_traitsIcEERSt13basic_ostreamIcT_ES5_PKc
	mov	rcx, rax
	mov	edx, r14d
	call	_ZNSolsEi
	movabs	rdx, .L.str.8
	mov	rcx, rax
	call	_ZStlsISt11char_traitsIcEERSt13basic_ostreamIcT_ES5_PKc
	mov	rcx, rax
	vmovapd	xmm1, xmm6
	call	_ZNSo9_M_insertIdEERSoT_
	movabs	rdx, .L.str.9
	mov	rcx, rax
	call	_ZStlsISt11char_traitsIcEERSt13basic_ostreamIcT_ES5_PKc
	vmovsd	xmm1, qword ptr [rsi]   # xmm1 = mem[0],zero
	jmp	.LBB6_14
.LBB6_62:
	lea	r14, [rsp + 8*rsi + 32]
	vmovapd	xmm6, xmm1
	jmp	.LBB6_38
.LBB6_37:
	lea	r14, [rsp + 8*rsi + 32]
.LBB6_38:
	movabs	rcx, _ZSt4cerr
	movabs	rdx, .L.str.1
	call	_ZStlsISt11char_traitsIcEERSt13basic_ostreamIcT_ES5_PKc
	movabs	rdi, _ZTSN4math6scalarE
	mov	rcx, rax
	mov	rdx, rdi
	call	_ZStlsISt11char_traitsIcEERSt13basic_ostreamIcT_ES5_PKc
	movabs	rdx, .L.str.2
	mov	rcx, rax
	call	_ZStlsISt11char_traitsIcEERSt13basic_ostreamIcT_ES5_PKc
	movabs	rdx, _ZTSN4math6pack2dE
	mov	rcx, rax
	call	_ZStlsISt11char_traitsIcEERSt13basic_ostreamIcT_ES5_PKc
	movabs	rbx, .L.str.10
	mov	rcx, rax
	mov	rdx, rbx
	call	_ZStlsISt11char_traitsIcEERSt13basic_ostreamIcT_ES5_PKc
	mov	rcx, rax
	mov	rdx, rdi
	call	_ZStlsISt11char_traitsIcEERSt13basic_ostreamIcT_ES5_PKc
	mov	rcx, rax
	mov	rdx, rbx
	call	_ZStlsISt11char_traitsIcEERSt13basic_ostreamIcT_ES5_PKc
	movabs	rdx, .L.str.3
	mov	rcx, rax
	call	_ZStlsISt11char_traitsIcEERSt13basic_ostreamIcT_ES5_PKc
	lea	rdx, [rsp + 96]
	mov	rcx, rax
	call	_ZlsIN4math6scalarEERSoS2_7printerIT_E
	movabs	rdi, .L.str.4
	mov	rcx, rax
	mov	rdx, rdi
	call	_ZStlsISt11char_traitsIcEERSt13basic_ostreamIcT_ES5_PKc
	movabs	rbx, .L.str.11
	mov	rcx, rax
	mov	rdx, rbx
	call	_ZStlsISt11char_traitsIcEERSt13basic_ostreamIcT_ES5_PKc
	lea	rdx, [rsp + 64]
	mov	rcx, rax
	call	_ZlsIN4math6pack2dEERSoS2_7printerIT_E
.LBB6_33:
	mov	rcx, rax
	mov	rdx, rdi
	call	_ZStlsISt11char_traitsIcEERSt13basic_ostreamIcT_ES5_PKc
	mov	rcx, rax
	mov	rdx, rbx
	call	_ZStlsISt11char_traitsIcEERSt13basic_ostreamIcT_ES5_PKc
	lea	rdx, [rsp + 80]
	mov	rcx, rax
	call	_ZlsIN4math6scalarEERSoS2_7printerIT_E
	jmp	.LBB6_34
.LBB6_60:
	lea	r14, [rsp + 8*rsi + 32]
	vmovapd	xmm6, xmm1
	jmp	.LBB6_44
.LBB6_43:
	lea	r14, [rsp + 8*rsi + 32]
.LBB6_44:
	movabs	rcx, _ZSt4cerr
	movabs	rdx, .L.str.1
	call	_ZStlsISt11char_traitsIcEERSt13basic_ostreamIcT_ES5_PKc
	movabs	rdi, _ZTSN4math6scalarE
	mov	rcx, rax
	mov	rdx, rdi
	call	_ZStlsISt11char_traitsIcEERSt13basic_ostreamIcT_ES5_PKc
	movabs	rdx, .L.str.2
	mov	rcx, rax
	call	_ZStlsISt11char_traitsIcEERSt13basic_ostreamIcT_ES5_PKc
	mov	rcx, rax
	mov	rdx, rdi
	call	_ZStlsISt11char_traitsIcEERSt13basic_ostreamIcT_ES5_PKc
	movabs	rdi, .L.str.10
	mov	rcx, rax
	mov	rdx, rdi
	call	_ZStlsISt11char_traitsIcEERSt13basic_ostreamIcT_ES5_PKc
	movabs	rdx, _ZTSN4math6pack2dE
	mov	rcx, rax
	call	_ZStlsISt11char_traitsIcEERSt13basic_ostreamIcT_ES5_PKc
	mov	rcx, rax
	mov	rdx, rdi
	call	_ZStlsISt11char_traitsIcEERSt13basic_ostreamIcT_ES5_PKc
	movabs	rdx, .L.str.3
	mov	rcx, rax
	call	_ZStlsISt11char_traitsIcEERSt13basic_ostreamIcT_ES5_PKc
	lea	rdx, [rsp + 96]
	mov	rcx, rax
	call	_ZlsIN4math6scalarEERSoS2_7printerIT_E
	movabs	rdi, .L.str.4
	mov	rcx, rax
	mov	rdx, rdi
	call	_ZStlsISt11char_traitsIcEERSt13basic_ostreamIcT_ES5_PKc
	movabs	rbx, .L.str.11
	mov	rcx, rax
	mov	rdx, rbx
	call	_ZStlsISt11char_traitsIcEERSt13basic_ostreamIcT_ES5_PKc
	lea	rdx, [rsp + 80]
	mov	rcx, rax
	call	_ZlsIN4math6scalarEERSoS2_7printerIT_E
	mov	rcx, rax
	mov	rdx, rdi
	call	_ZStlsISt11char_traitsIcEERSt13basic_ostreamIcT_ES5_PKc
	mov	rcx, rax
	mov	rdx, rbx
	call	_ZStlsISt11char_traitsIcEERSt13basic_ostreamIcT_ES5_PKc
	lea	rdx, [rsp + 64]
	mov	rcx, rax
	call	_ZlsIN4math6pack2dEERSoS2_7printerIT_E
.LBB6_34:
	mov	rcx, rax
	mov	rdx, rdi
	call	_ZStlsISt11char_traitsIcEERSt13basic_ostreamIcT_ES5_PKc
	movabs	rdx, .L.str.5
	mov	rcx, rax
	call	_ZStlsISt11char_traitsIcEERSt13basic_ostreamIcT_ES5_PKc
	lea	rdx, [rsp + 32]
	jmp	.LBB6_35
.LBB6_58:
	lea	r14, [rsp + 8*rsi + 80]
	vmovapd	xmm6, xmm0
	jmp	.LBB6_52
.LBB6_51:
	lea	r14, [rsp + 8*rsi + 80]
.LBB6_52:
	movabs	rcx, _ZSt4cerr
	movabs	rdx, .L.str.1
	call	_ZStlsISt11char_traitsIcEERSt13basic_ostreamIcT_ES5_PKc
	movabs	rdx, _ZTSN4math6scalarE
	mov	rcx, rax
	call	_ZStlsISt11char_traitsIcEERSt13basic_ostreamIcT_ES5_PKc
	movabs	rdx, .L.str.2
	mov	rcx, rax
	call	_ZStlsISt11char_traitsIcEERSt13basic_ostreamIcT_ES5_PKc
	movabs	rdi, _ZTSN4math6pack2dE
	mov	rcx, rax
	mov	rdx, rdi
	call	_ZStlsISt11char_traitsIcEERSt13basic_ostreamIcT_ES5_PKc
	movabs	rbx, .L.str.10
	mov	rcx, rax
	mov	rdx, rbx
	call	_ZStlsISt11char_traitsIcEERSt13basic_ostreamIcT_ES5_PKc
	mov	rcx, rax
	mov	rdx, rdi
	call	_ZStlsISt11char_traitsIcEERSt13basic_ostreamIcT_ES5_PKc
	mov	rcx, rax
	mov	rdx, rbx
	call	_ZStlsISt11char_traitsIcEERSt13basic_ostreamIcT_ES5_PKc
	movabs	rdx, .L.str.3
	mov	rcx, rax
	call	_ZStlsISt11char_traitsIcEERSt13basic_ostreamIcT_ES5_PKc
	lea	rdx, [rsp + 112]
	mov	rcx, rax
	call	_ZlsIN4math6scalarEERSoS2_7printerIT_E
	movabs	rdi, .L.str.4
	mov	rcx, rax
	mov	rdx, rdi
	call	_ZStlsISt11char_traitsIcEERSt13basic_ostreamIcT_ES5_PKc
	movabs	rbx, .L.str.11
	mov	rcx, rax
	mov	rdx, rbx
	call	_ZStlsISt11char_traitsIcEERSt13basic_ostreamIcT_ES5_PKc
	lea	rdx, [rsp + 32]
	mov	rcx, rax
	call	_ZlsIN4math6pack2dEERSoS2_7printerIT_E
.LBB6_48:
	mov	rcx, rax
	mov	rdx, rdi
	call	_ZStlsISt11char_traitsIcEERSt13basic_ostreamIcT_ES5_PKc
	mov	rcx, rax
	mov	rdx, rbx
	call	_ZStlsISt11char_traitsIcEERSt13basic_ostreamIcT_ES5_PKc
	lea	rdx, [rsp + 96]
	mov	rcx, rax
	call	_ZlsIN4math6pack2dEERSoS2_7printerIT_E
.LBB6_49:
	mov	rcx, rax
	mov	rdx, rdi
	call	_ZStlsISt11char_traitsIcEERSt13basic_ostreamIcT_ES5_PKc
	movabs	rdx, .L.str.5
	mov	rcx, rax
	call	_ZStlsISt11char_traitsIcEERSt13basic_ostreamIcT_ES5_PKc
	lea	rdx, [rsp + 80]
.LBB6_35:
	mov	rcx, rax
	call	_ZlsIN4math6pack2dEERSoS2_7printerIT_E
	mov	rcx, rax
	mov	rdx, rdi
	call	_ZStlsISt11char_traitsIcEERSt13basic_ostreamIcT_ES5_PKc
	movabs	rdx, .L.str.14
	mov	rcx, rax
	call	_ZStlsISt11char_traitsIcEERSt13basic_ostreamIcT_ES5_PKc
	movabs	rdx, .L.str.7
	mov	rcx, rax
	call	_ZStlsISt11char_traitsIcEERSt13basic_ostreamIcT_ES5_PKc
	mov	rcx, rax
	mov	edx, esi
	call	_ZNSolsEi
	movabs	rdx, .L.str.8
	mov	rcx, rax
	call	_ZStlsISt11char_traitsIcEERSt13basic_ostreamIcT_ES5_PKc
	mov	rcx, rax
	vmovapd	xmm1, xmm6
	call	_ZNSo9_M_insertIdEERSoT_
	movabs	rdx, .L.str.9
	mov	rcx, rax
	call	_ZStlsISt11char_traitsIcEERSt13basic_ostreamIcT_ES5_PKc
	vmovsd	xmm1, qword ptr [r14]   # xmm1 = mem[0],zero
.LBB6_14:
	mov	rcx, rax
	call	_ZNSo9_M_insertIdEERSoT_
	mov	rcx, rax
	mov	rdx, rdi
.LBB6_15:
	call	_ZStlsISt11char_traitsIcEERSt13basic_ostreamIcT_ES5_PKc
	mov	ecx, 1
	call	exit
	ud2
	.seh_handlerdata
	.section	.text,"xr",discard,_Z12test_pack_spIN4math6scalarENS0_6pack2dEEvPKT0_
.Lcfi56:
	.seh_endproc

	.def	 _ZlsIN4math6pack2dEERSoS2_7printerIT_E;
	.scl	2;
	.type	32;
	.endef
	.section	.text,"xr",discard,_ZlsIN4math6pack2dEERSoS2_7printerIT_E
	.globl	_ZlsIN4math6pack2dEERSoS2_7printerIT_E
	.p2align	4, 0x90
_ZlsIN4math6pack2dEERSoS2_7printerIT_E: # @_ZlsIN4math6pack2dEERSoS2_7printerIT_E
.Lcfi57:
.seh_proc _ZlsIN4math6pack2dEERSoS2_7printerIT_E
# BB#0:
	push	rsi
.Lcfi58:
	.seh_pushreg 6
	push	rdi
.Lcfi59:
	.seh_pushreg 7
	sub	rsp, 56
.Lcfi60:
	.seh_stackalloc 56
.Lcfi61:
	.seh_endprologue
	mov	rsi, rcx
	vmovaps	xmm0, xmmword ptr [rdx]
	vmovaps	xmmword ptr [rsp + 32], xmm0
	movabs	rdi, _ZN6layoutIN4math6pack2dEE1iE
	mov	rax, qword ptr [rsi]
	mov	rax, qword ptr [rax - 24]
	movsxd	rcx, dword ptr [rdi]
	mov	qword ptr [rsi + rax + 16], 4
	vmovsd	xmm1, qword ptr [rsp + 8*rcx + 32] # xmm1 = mem[0],zero
	mov	rcx, rsi
	call	_ZNSo9_M_insertIdEERSoT_
	mov	rax, qword ptr [rsi]
	mov	rax, qword ptr [rax - 24]
	movsxd	rcx, dword ptr [rdi + 4]
	mov	qword ptr [rsi + rax + 16], 4
	vmovsd	xmm1, qword ptr [rsp + 8*rcx + 32] # xmm1 = mem[0],zero
	mov	rcx, rsi
	call	_ZNSo9_M_insertIdEERSoT_
	mov	rax, rsi
	add	rsp, 56
	pop	rdi
	pop	rsi
	ret
	.seh_handlerdata
	.section	.text,"xr",discard,_ZlsIN4math6pack2dEERSoS2_7printerIT_E
.Lcfi62:
	.seh_endproc

	.def	 _Z12test_pack_spIdN4math6pack4dEEvPKT0_;
	.scl	2;
	.type	32;
	.endef
	.section	.text,"xr",discard,_Z12test_pack_spIdN4math6pack4dEEvPKT0_
	.globl	_Z12test_pack_spIdN4math6pack4dEEvPKT0_
	.p2align	4, 0x90
_Z12test_pack_spIdN4math6pack4dEEvPKT0_: # @_Z12test_pack_spIdN4math6pack4dEEvPKT0_
.Lcfi63:
.seh_proc _Z12test_pack_spIdN4math6pack4dEEvPKT0_
# BB#0:
	push	rbp
.Lcfi64:
	.seh_pushreg 5
	push	r15
.Lcfi65:
	.seh_pushreg 15
	push	r14
.Lcfi66:
	.seh_pushreg 14
	push	r13
.Lcfi67:
	.seh_pushreg 13
	push	r12
.Lcfi68:
	.seh_pushreg 12
	push	rsi
.Lcfi69:
	.seh_pushreg 6
	push	rdi
.Lcfi70:
	.seh_pushreg 7
	push	rbx
.Lcfi71:
	.seh_pushreg 3
	sub	rsp, 344
.Lcfi72:
	.seh_stackalloc 344
	lea	rbp, [rsp + 128]
.Lcfi73:
	.seh_setframe 5, 128
	vmovaps	xmmword ptr [rbp + 192], xmm6 # 16-byte Spill
.Lcfi74:
	.seh_savexmm 6, 320
.Lcfi75:
	.seh_endprologue
	and	rsp, -32
	vmovaps	ymm0, ymmword ptr [rcx]
	vmovaps	ymmword ptr [rsp + 96], ymm0
	vmovaps	ymm0, ymmword ptr [rcx]
	vmovaps	ymmword ptr [rsp + 160], ymm0
	vmovapd	ymm0, ymmword ptr [rcx]
	vmovapd	ymmword ptr [rsp + 64], ymm0
	movabs	r11, _ZN6layoutIN4math6pack4dEE1iE
	mov	r14d, dword ptr [r11]
	movsxd	rsi, r14d
	vmovsd	xmm6, qword ptr [rsp + 8*rsi + 96] # xmm6 = mem[0],zero
	vucomisd	xmm6, qword ptr [rsp + 8*rsi + 64]
	jne	.LBB8_1
	jp	.LBB8_1
# BB#2:
	mov	r13d, dword ptr [r11 + 4]
	movsxd	rdi, r13d
	vmovsd	xmm6, qword ptr [rsp + 8*rdi + 96] # xmm6 = mem[0],zero
	vucomisd	xmm6, qword ptr [rsp + 8*rdi + 64]
	jne	.LBB8_3
	jp	.LBB8_3
# BB#105:
	mov	r8d, dword ptr [r11 + 8]
	movsxd	rdx, r8d
	vmovsd	xmm6, qword ptr [rsp + 8*rdx + 96] # xmm6 = mem[0],zero
	vucomisd	xmm6, qword ptr [rsp + 8*rdx + 64]
	jne	.LBB8_106
	jp	.LBB8_106
# BB#107:
	mov	r9d, dword ptr [r11 + 12]
	movsxd	rax, r9d
	vmovsd	xmm6, qword ptr [rsp + 8*rax + 96] # xmm6 = mem[0],zero
	vucomisd	xmm6, qword ptr [rsp + 8*rax + 64]
	jne	.LBB8_108
	jp	.LBB8_108
# BB#109:
	movabs	r10, count
	mov	r15d, dword ptr [r10]
	lea	ebx, [r15 + 1]
	mov	dword ptr [r10], ebx
	vmovaps	ymm0, ymmword ptr [rcx]
	vmovaps	ymmword ptr [rsp + 96], ymm0
	vmovaps	ymm0, ymmword ptr [rcx + 32]
	vmovaps	ymmword ptr [rsp + 160], ymm0
	vmovaps	ymm0, ymmword ptr [rcx]
	vmovaps	ymmword ptr [rsp + 64], ymm0
	vmovaps	ymm0, ymmword ptr [rcx + 32]
	vmovaps	ymmword ptr [rsp + 224], ymm0
	vmovapd	ymm0, ymmword ptr [rsp + 64]
	vmulpd	ymm0, ymm0, ymmword ptr [rsp + 224]
	vmovapd	ymmword ptr [rsp + 128], ymm0
	vmovsd	xmm0, qword ptr [rsp + 8*rsi + 96] # xmm0 = mem[0],zero
	vmulsd	xmm6, xmm0, qword ptr [rsp + 8*rsi + 160]
	vucomisd	xmm6, qword ptr [rsp + 8*rsi + 128]
	jne	.LBB8_110
	jp	.LBB8_110
# BB#5:
	vmovsd	xmm0, qword ptr [rsp + 8*rdi + 96] # xmm0 = mem[0],zero
	vmulsd	xmm6, xmm0, qword ptr [rsp + 8*rdi + 160]
	vucomisd	xmm6, qword ptr [rsp + 8*rdi + 128]
	jne	.LBB8_6
	jp	.LBB8_6
# BB#99:
	vmovsd	xmm0, qword ptr [rsp + 8*rdx + 96] # xmm0 = mem[0],zero
	vmulsd	xmm6, xmm0, qword ptr [rsp + 8*rdx + 160]
	vucomisd	xmm6, qword ptr [rsp + 8*rdx + 128]
	jne	.LBB8_100
	jp	.LBB8_100
# BB#101:
	mov	dword ptr [rsp + 220], r14d # 4-byte Spill
	vmovsd	xmm0, qword ptr [rsp + 8*rax + 96] # xmm0 = mem[0],zero
	vmulsd	xmm6, xmm0, qword ptr [rsp + 8*rax + 160]
	vucomisd	xmm6, qword ptr [rsp + 8*rax + 128]
	jne	.LBB8_102
	jp	.LBB8_102
# BB#103:
	lea	r12, [rcx + 32]
	lea	ebx, [r15 + 2]
	mov	dword ptr [r10], ebx
	mov	r14, qword ptr [rcx]
	vmovaps	ymm0, ymmword ptr [r12]
	vmovaps	ymmword ptr [rsp + 96], ymm0
	mov	qword ptr [rsp + 224], r14
	vmovaps	ymm0, ymmword ptr [r12]
	vmovaps	ymmword ptr [rsp + 160], ymm0
	vmovq	xmm2, r14
	vpbroadcastq	ymm3, xmm2
	vmulpd	ymm0, ymm3, ymmword ptr [rsp + 160]
	vmovapd	ymmword ptr [rsp + 64], ymm0
	vmulsd	xmm6, xmm2, qword ptr [rsp + 8*rsi + 96]
	vucomisd	xmm6, qword ptr [rsp + 8*rsi + 64]
	jne	.LBB8_104
	jp	.LBB8_104
# BB#9:
	vmulsd	xmm6, xmm2, qword ptr [rsp + 8*rdi + 96]
	vucomisd	xmm6, qword ptr [rsp + 8*rdi + 64]
	jne	.LBB8_10
	jp	.LBB8_10
# BB#93:
	vmulsd	xmm6, xmm2, qword ptr [rsp + 8*rdx + 96]
	vucomisd	xmm6, qword ptr [rsp + 8*rdx + 64]
	jne	.LBB8_94
	jp	.LBB8_94
# BB#95:
	mov	dword ptr [rsp + 60], r13d # 4-byte Spill
	vmulsd	xmm6, xmm2, qword ptr [rsp + 8*rax + 96]
	vucomisd	xmm6, qword ptr [rsp + 8*rax + 64]
	jne	.LBB8_96
	jp	.LBB8_96
# BB#97:
	lea	ebx, [r15 + 3]
	mov	dword ptr [r10], ebx
	vmovaps	ymm0, ymmword ptr [rcx]
	vmovaps	ymmword ptr [rsp + 96], ymm0
	mov	r13, qword ptr [rcx + 32]
	vmovaps	ymm0, ymmword ptr [rcx]
	vmovaps	ymmword ptr [rsp + 160], ymm0
	mov	qword ptr [rsp + 224], r13
	vmovq	xmm0, r13
	vpbroadcastq	ymm1, xmm0
	vmulpd	ymm4, ymm1, ymmword ptr [rsp + 160]
	vmovapd	ymmword ptr [rsp + 64], ymm4
	vmulsd	xmm6, xmm0, qword ptr [rsp + 8*rsi + 96]
	vucomisd	xmm6, qword ptr [rsp + 8*rsi + 64]
	jne	.LBB8_98
	jp	.LBB8_98
# BB#12:
	vmulsd	xmm6, xmm0, qword ptr [rsp + 8*rdi + 96]
	vucomisd	xmm6, qword ptr [rsp + 8*rdi + 64]
	jne	.LBB8_13
	jp	.LBB8_13
# BB#87:
	vmulsd	xmm6, xmm0, qword ptr [rsp + 8*rdx + 96]
	vucomisd	xmm6, qword ptr [rsp + 8*rdx + 64]
	jne	.LBB8_88
	jp	.LBB8_88
# BB#89:
	vmulsd	xmm6, xmm0, qword ptr [rsp + 8*rax + 96]
	vucomisd	xmm6, qword ptr [rsp + 8*rax + 64]
	jne	.LBB8_90
	jp	.LBB8_90
# BB#91:
	lea	ebx, [r15 + 4]
	mov	dword ptr [r10], ebx
	vmovaps	ymm4, ymmword ptr [rcx]
	vmovaps	ymmword ptr [rsp + 96], ymm4
	vmovaps	ymm4, ymmword ptr [r12]
	vmovaps	ymmword ptr [rsp + 160], ymm4
	vmovaps	ymm4, ymmword ptr [rcx]
	vmovaps	ymmword ptr [rsp + 64], ymm4
	vmovaps	ymm4, ymmword ptr [r12]
	vmovaps	ymmword ptr [rsp + 224], ymm4
	vmovapd	ymm4, ymmword ptr [rsp + 64]
	vaddpd	ymm4, ymm4, ymmword ptr [rsp + 224]
	vmovapd	ymmword ptr [rsp + 128], ymm4
	vmovsd	xmm4, qword ptr [rsp + 8*rsi + 96] # xmm4 = mem[0],zero
	vaddsd	xmm6, xmm4, qword ptr [rsp + 8*rsi + 160]
	vucomisd	xmm6, qword ptr [rsp + 8*rsi + 128]
	jne	.LBB8_92
	jp	.LBB8_92
# BB#15:
	vmovsd	xmm4, qword ptr [rsp + 8*rdi + 96] # xmm4 = mem[0],zero
	vaddsd	xmm6, xmm4, qword ptr [rsp + 8*rdi + 160]
	vucomisd	xmm6, qword ptr [rsp + 8*rdi + 128]
	jne	.LBB8_16
	jp	.LBB8_16
# BB#81:
	vmovsd	xmm4, qword ptr [rsp + 8*rdx + 96] # xmm4 = mem[0],zero
	vaddsd	xmm6, xmm4, qword ptr [rsp + 8*rdx + 160]
	vucomisd	xmm6, qword ptr [rsp + 8*rdx + 128]
	jne	.LBB8_82
	jp	.LBB8_82
# BB#83:
	vmovsd	xmm4, qword ptr [rsp + 8*rax + 96] # xmm4 = mem[0],zero
	vaddsd	xmm6, xmm4, qword ptr [rsp + 8*rax + 160]
	vucomisd	xmm6, qword ptr [rsp + 8*rax + 128]
	jne	.LBB8_84
	jp	.LBB8_84
# BB#85:
	lea	ebx, [r15 + 5]
	mov	dword ptr [r10], ebx
	vmovaps	ymm4, ymmword ptr [r12]
	vmovaps	ymmword ptr [rsp + 96], ymm4
	mov	qword ptr [rsp + 224], r14
	vmovapd	ymm4, ymmword ptr [r12]
	vmovapd	ymmword ptr [rsp + 160], ymm4
	vaddpd	ymm3, ymm3, ymmword ptr [rsp + 160]
	vmovapd	ymmword ptr [rsp + 64], ymm3
	vaddsd	xmm6, xmm2, qword ptr [rsp + 8*rsi + 96]
	vucomisd	xmm6, qword ptr [rsp + 8*rsi + 64]
	jne	.LBB8_86
	jp	.LBB8_86
# BB#18:
	vaddsd	xmm6, xmm2, qword ptr [rsp + 8*rdi + 96]
	vucomisd	xmm6, qword ptr [rsp + 8*rdi + 64]
	jne	.LBB8_19
	jp	.LBB8_19
# BB#75:
	vaddsd	xmm6, xmm2, qword ptr [rsp + 8*rdx + 96]
	vucomisd	xmm6, qword ptr [rsp + 8*rdx + 64]
	jne	.LBB8_76
	jp	.LBB8_76
# BB#77:
	vaddsd	xmm6, xmm2, qword ptr [rsp + 8*rax + 96]
	vucomisd	xmm6, qword ptr [rsp + 8*rax + 64]
	jne	.LBB8_78
	jp	.LBB8_78
# BB#79:
	lea	ebx, [r15 + 6]
	mov	dword ptr [r10], ebx
	vmovaps	ymm2, ymmword ptr [rcx]
	vmovaps	ymmword ptr [rsp + 96], ymm2
	vmovaps	ymm2, ymmword ptr [rcx]
	vmovaps	ymmword ptr [rsp + 160], ymm2
	mov	qword ptr [rsp + 224], r13
	vaddpd	ymm2, ymm1, ymmword ptr [rsp + 160]
	vmovapd	ymmword ptr [rsp + 64], ymm2
	vaddsd	xmm6, xmm0, qword ptr [rsp + 8*rsi + 96]
	vucomisd	xmm6, qword ptr [rsp + 8*rsi + 64]
	jne	.LBB8_80
	jp	.LBB8_80
# BB#27:
	vaddsd	xmm6, xmm0, qword ptr [rsp + 8*rdi + 96]
	vucomisd	xmm6, qword ptr [rsp + 8*rdi + 64]
	jne	.LBB8_28
	jp	.LBB8_28
# BB#71:
	vaddsd	xmm6, xmm0, qword ptr [rsp + 8*rdx + 96]
	vucomisd	xmm6, qword ptr [rsp + 8*rdx + 64]
	jne	.LBB8_72
	jp	.LBB8_72
# BB#73:
	vaddsd	xmm6, xmm0, qword ptr [rsp + 8*rax + 96]
	vucomisd	xmm6, qword ptr [rsp + 8*rax + 64]
	jne	.LBB8_74
	jp	.LBB8_74
# BB#30:
	add	r15d, 7
	mov	dword ptr [r10], r15d
	vmovaps	ymm2, ymmword ptr [rcx]
	vmovaps	ymmword ptr [rsp + 96], ymm2
	mov	rax, qword ptr [rcx + 64]
	vmovaps	ymm2, ymmword ptr [rcx]
	vmovaps	ymmword ptr [rsp + 160], ymm2
	mov	qword ptr [rsp + 224], r13
	mov	qword ptr [rsp + 128], rax
	#APP
	# TEST3 a * b + c -- P a = u1.p; S b = u2.d[0]; S c = u3.d[0];
	#NO_APP
	vmovq	xmm2, rax
	vpbroadcastq	ymm3, xmm2
	vfmadd132pd	ymm1, ymm3, ymmword ptr [rsp + 160]
	vmovapd	ymmword ptr [rsp + 64], ymm1
	movsxd	rsi, dword ptr [r11]
	vmulsd	xmm1, xmm0, qword ptr [rsp + 8*rsi + 96]
	vaddsd	xmm6, xmm1, xmm2
	vucomisd	xmm6, qword ptr [rsp + 8*rsi + 64]
	jne	.LBB8_32
	jp	.LBB8_32
# BB#31:
	movsxd	rsi, dword ptr [r11 + 4]
	vmulsd	xmm1, xmm0, qword ptr [rsp + 8*rsi + 96]
	vaddsd	xmm6, xmm1, xmm2
	vucomisd	xmm6, qword ptr [rsp + 8*rsi + 64]
	jne	.LBB8_32
	jp	.LBB8_32
# BB#68:
	movsxd	rsi, dword ptr [r11 + 8]
	vmulsd	xmm1, xmm0, qword ptr [rsp + 8*rsi + 96]
	vaddsd	xmm6, xmm1, xmm2
	vucomisd	xmm6, qword ptr [rsp + 8*rsi + 64]
	jne	.LBB8_32
	jp	.LBB8_32
# BB#69:
	movsxd	rsi, dword ptr [r11 + 12]
	vmulsd	xmm0, xmm0, qword ptr [rsp + 8*rsi + 96]
	vaddsd	xmm6, xmm0, xmm2
	vucomisd	xmm6, qword ptr [rsp + 8*rsi + 64]
	jne	.LBB8_32
	jp	.LBB8_32
# BB#70:
	inc	dword ptr [r10]
	mov	rax, qword ptr [rcx]
	vmovaps	ymm0, ymmword ptr [r12]
	vmovaps	ymmword ptr [rsp + 96], ymm0
	mov	rdx, qword ptr [rcx + 64]
	mov	qword ptr [rsp + 224], rax
	vmovaps	ymm0, ymmword ptr [r12]
	vmovaps	ymmword ptr [rsp + 160], ymm0
	mov	qword ptr [rsp + 128], rdx
	#APP
	# TEST3 a * b + c -- S a = u1.d[0]; P b = u2.p; S c = u3.d[0];
	#NO_APP
	vmovq	xmm0, rax
	vpbroadcastq	ymm2, xmm0
	vmovq	xmm1, rdx
	vpbroadcastq	ymm3, xmm1
	vfmadd231pd	ymm3, ymm2, ymmword ptr [rsp + 160]
	vmovapd	ymmword ptr [rsp + 64], ymm3
	movsxd	rsi, dword ptr [r11]
	vmulsd	xmm2, xmm0, qword ptr [rsp + 8*rsi + 96]
	vaddsd	xmm6, xmm2, xmm1
	vucomisd	xmm6, qword ptr [rsp + 8*rsi + 64]
	jne	.LBB8_37
	jp	.LBB8_37
# BB#36:
	movsxd	rsi, dword ptr [r11 + 4]
	vmulsd	xmm2, xmm0, qword ptr [rsp + 8*rsi + 96]
	vaddsd	xmm6, xmm2, xmm1
	vucomisd	xmm6, qword ptr [rsp + 8*rsi + 64]
	jne	.LBB8_37
	jp	.LBB8_37
# BB#65:
	movsxd	rsi, dword ptr [r11 + 8]
	vmulsd	xmm2, xmm0, qword ptr [rsp + 8*rsi + 96]
	vaddsd	xmm6, xmm2, xmm1
	vucomisd	xmm6, qword ptr [rsp + 8*rsi + 64]
	jne	.LBB8_37
	jp	.LBB8_37
# BB#66:
	movsxd	rsi, dword ptr [r11 + 12]
	vmulsd	xmm0, xmm0, qword ptr [rsp + 8*rsi + 96]
	vaddsd	xmm6, xmm0, xmm1
	vucomisd	xmm6, qword ptr [rsp + 8*rsi + 64]
	jne	.LBB8_37
	jp	.LBB8_37
# BB#67:
	inc	dword ptr [r10]
	vmovaps	ymm0, ymmword ptr [rcx]
	vmovaps	ymmword ptr [rsp + 96], ymm0
	vmovaps	ymm0, ymmword ptr [r12]
	vmovaps	ymmword ptr [rsp + 160], ymm0
	mov	rax, qword ptr [rcx + 64]
	vmovaps	ymm0, ymmword ptr [rcx]
	vmovaps	ymmword ptr [rsp + 64], ymm0
	vmovaps	ymm0, ymmword ptr [r12]
	vmovaps	ymmword ptr [rsp + 224], ymm0
	mov	qword ptr [rsp + 288], rax
	#APP
	# TEST3 a * b + c -- P a = u1.p; P b = u2.p; S c = u3.d[0];
	#NO_APP
	vmovapd	ymm1, ymmword ptr [rsp + 64]
	vmovq	xmm0, rax
	vpbroadcastq	ymm2, xmm0
	vfmadd231pd	ymm2, ymm1, ymmword ptr [rsp + 224]
	vmovapd	ymmword ptr [rsp + 128], ymm2
	movsxd	rsi, dword ptr [r11]
	vmovsd	xmm1, qword ptr [rsp + 8*rsi + 96] # xmm1 = mem[0],zero
	vmulsd	xmm1, xmm1, qword ptr [rsp + 8*rsi + 160]
	vaddsd	xmm6, xmm1, xmm0
	vucomisd	xmm6, qword ptr [rsp + 8*rsi + 128]
	jne	.LBB8_39
	jp	.LBB8_39
# BB#38:
	movsxd	rsi, dword ptr [r11 + 4]
	vmovsd	xmm1, qword ptr [rsp + 8*rsi + 96] # xmm1 = mem[0],zero
	vmulsd	xmm1, xmm1, qword ptr [rsp + 8*rsi + 160]
	vaddsd	xmm6, xmm1, xmm0
	vucomisd	xmm6, qword ptr [rsp + 8*rsi + 128]
	jne	.LBB8_39
	jp	.LBB8_39
# BB#62:
	movsxd	rsi, dword ptr [r11 + 8]
	vmovsd	xmm1, qword ptr [rsp + 8*rsi + 96] # xmm1 = mem[0],zero
	vmulsd	xmm1, xmm1, qword ptr [rsp + 8*rsi + 160]
	vaddsd	xmm6, xmm1, xmm0
	vucomisd	xmm6, qword ptr [rsp + 8*rsi + 128]
	jne	.LBB8_39
	jp	.LBB8_39
# BB#63:
	movsxd	rsi, dword ptr [r11 + 12]
	vmovsd	xmm1, qword ptr [rsp + 8*rsi + 96] # xmm1 = mem[0],zero
	vmulsd	xmm1, xmm1, qword ptr [rsp + 8*rsi + 160]
	vaddsd	xmm6, xmm1, xmm0
	vucomisd	xmm6, qword ptr [rsp + 8*rsi + 128]
	jne	.LBB8_39
	jp	.LBB8_39
# BB#64:
	inc	dword ptr [r10]
	mov	rax, qword ptr [rcx]
	mov	rdx, qword ptr [rcx + 32]
	vmovaps	ymm0, ymmword ptr [rcx + 64]
	vmovaps	ymmword ptr [rsp + 96], ymm0
	mov	qword ptr [rsp + 224], rax
	mov	qword ptr [rsp + 128], rdx
	vmovaps	ymm0, ymmword ptr [rcx + 64]
	vmovaps	ymmword ptr [rsp + 160], ymm0
	#APP
	# TEST3 a * b + c -- S a = u1.d[0]; S b = u2.d[0]; P c = u3.p;
	#NO_APP
	vmovq	xmm0, rax
	vmovq	xmm1, rdx
	vmulsd	xmm0, xmm0, xmm1
	vbroadcastsd	ymm1, xmm0
	vaddpd	ymm1, ymm1, ymmword ptr [rsp + 160]
	vmovapd	ymmword ptr [rsp + 64], ymm1
	movsxd	rsi, dword ptr [r11]
	vaddsd	xmm6, xmm0, qword ptr [rsp + 8*rsi + 96]
	vucomisd	xmm6, qword ptr [rsp + 8*rsi + 64]
	jne	.LBB8_41
	jp	.LBB8_41
# BB#40:
	movsxd	rsi, dword ptr [r11 + 4]
	vaddsd	xmm6, xmm0, qword ptr [rsp + 8*rsi + 96]
	vucomisd	xmm6, qword ptr [rsp + 8*rsi + 64]
	jne	.LBB8_41
	jp	.LBB8_41
# BB#59:
	movsxd	rsi, dword ptr [r11 + 8]
	vaddsd	xmm6, xmm0, qword ptr [rsp + 8*rsi + 96]
	vucomisd	xmm6, qword ptr [rsp + 8*rsi + 64]
	jne	.LBB8_41
	jp	.LBB8_41
# BB#60:
	movsxd	rsi, dword ptr [r11 + 12]
	vaddsd	xmm6, xmm0, qword ptr [rsp + 8*rsi + 96]
	vucomisd	xmm6, qword ptr [rsp + 8*rsi + 64]
	jne	.LBB8_41
	jp	.LBB8_41
# BB#61:
	lea	rax, [rcx + 64]
	inc	dword ptr [r10]
	vmovaps	ymm0, ymmword ptr [rcx]
	vmovaps	ymmword ptr [rsp + 96], ymm0
	mov	rdx, qword ptr [rcx + 32]
	vmovaps	ymm0, ymmword ptr [rax]
	vmovaps	ymmword ptr [rsp + 160], ymm0
	vmovaps	ymm0, ymmword ptr [rcx]
	vmovaps	ymmword ptr [rsp + 64], ymm0
	mov	qword ptr [rsp + 288], rdx
	vmovaps	ymm0, ymmword ptr [rax]
	vmovaps	ymmword ptr [rsp + 224], ymm0
	#APP
	# TEST3 a * b + c -- P a = u1.p; S b = u2.d[0]; P c = u3.p;
	#NO_APP
	vmovapd	ymm1, ymmword ptr [rsp + 64]
	vmovq	xmm0, rdx
	vpbroadcastq	ymm2, xmm0
	vfmadd213pd	ymm2, ymm1, ymmword ptr [rsp + 224]
	vmovapd	ymmword ptr [rsp + 128], ymm2
	movsxd	rsi, dword ptr [r11]
	vmulsd	xmm1, xmm0, qword ptr [rsp + 8*rsi + 96]
	vaddsd	xmm6, xmm1, qword ptr [rsp + 8*rsi + 160]
	vucomisd	xmm6, qword ptr [rsp + 8*rsi + 128]
	jne	.LBB8_43
	jp	.LBB8_43
# BB#42:
	movsxd	rsi, dword ptr [r11 + 4]
	vmulsd	xmm1, xmm0, qword ptr [rsp + 8*rsi + 96]
	vaddsd	xmm6, xmm1, qword ptr [rsp + 8*rsi + 160]
	vucomisd	xmm6, qword ptr [rsp + 8*rsi + 128]
	jne	.LBB8_43
	jp	.LBB8_43
# BB#56:
	movsxd	rsi, dword ptr [r11 + 8]
	vmulsd	xmm1, xmm0, qword ptr [rsp + 8*rsi + 96]
	vaddsd	xmm6, xmm1, qword ptr [rsp + 8*rsi + 160]
	vucomisd	xmm6, qword ptr [rsp + 8*rsi + 128]
	jne	.LBB8_43
	jp	.LBB8_43
# BB#57:
	movsxd	rsi, dword ptr [r11 + 12]
	vmulsd	xmm0, xmm0, qword ptr [rsp + 8*rsi + 96]
	vaddsd	xmm6, xmm0, qword ptr [rsp + 8*rsi + 160]
	vucomisd	xmm6, qword ptr [rsp + 8*rsi + 128]
	jne	.LBB8_43
	jp	.LBB8_43
# BB#58:
	inc	dword ptr [r10]
	mov	rdx, qword ptr [rcx]
	vmovaps	ymm0, ymmword ptr [r12]
	vmovaps	ymmword ptr [rsp + 96], ymm0
	vmovaps	ymm0, ymmword ptr [rax]
	vmovaps	ymmword ptr [rsp + 160], ymm0
	mov	qword ptr [rsp + 288], rdx
	vmovaps	ymm0, ymmword ptr [r12]
	vmovaps	ymmword ptr [rsp + 64], ymm0
	vmovaps	ymm0, ymmword ptr [rax]
	vmovaps	ymmword ptr [rsp + 224], ymm0
	#APP
	# TEST3 a * b + c -- S a = u1.d[0]; P b = u2.p; P c = u3.p;
	#NO_APP
	vmovq	xmm0, rdx
	vpbroadcastq	ymm1, xmm0
	vmovapd	ymm2, ymmword ptr [rsp + 64]
	vfmadd213pd	ymm2, ymm1, ymmword ptr [rsp + 224]
	vmovapd	ymmword ptr [rsp + 128], ymm2
	movsxd	rsi, dword ptr [r11]
	vmulsd	xmm1, xmm0, qword ptr [rsp + 8*rsi + 96]
	vaddsd	xmm6, xmm1, qword ptr [rsp + 8*rsi + 160]
	vucomisd	xmm6, qword ptr [rsp + 8*rsi + 128]
	jne	.LBB8_47
	jp	.LBB8_47
# BB#46:
	movsxd	rsi, dword ptr [r11 + 4]
	vmulsd	xmm1, xmm0, qword ptr [rsp + 8*rsi + 96]
	vaddsd	xmm6, xmm1, qword ptr [rsp + 8*rsi + 160]
	vucomisd	xmm6, qword ptr [rsp + 8*rsi + 128]
	jne	.LBB8_47
	jp	.LBB8_47
# BB#53:
	movsxd	rsi, dword ptr [r11 + 8]
	vmulsd	xmm1, xmm0, qword ptr [rsp + 8*rsi + 96]
	vaddsd	xmm6, xmm1, qword ptr [rsp + 8*rsi + 160]
	vucomisd	xmm6, qword ptr [rsp + 8*rsi + 128]
	jne	.LBB8_47
	jp	.LBB8_47
# BB#54:
	movsxd	rsi, dword ptr [r11 + 12]
	vmulsd	xmm0, xmm0, qword ptr [rsp + 8*rsi + 96]
	vaddsd	xmm6, xmm0, qword ptr [rsp + 8*rsi + 160]
	vucomisd	xmm6, qword ptr [rsp + 8*rsi + 128]
	jne	.LBB8_47
	jp	.LBB8_47
# BB#55:
	inc	dword ptr [r10]
	vmovaps	ymm0, ymmword ptr [rcx]
	vmovaps	ymmword ptr [rsp + 96], ymm0
	vmovaps	ymm0, ymmword ptr [r12]
	vmovaps	ymmword ptr [rsp + 160], ymm0
	vmovaps	ymm0, ymmword ptr [rax]
	vmovaps	ymmword ptr [rsp + 64], ymm0
	vmovaps	ymm0, ymmword ptr [rcx]
	vmovaps	ymmword ptr [rsp + 224], ymm0
	vmovaps	ymm0, ymmword ptr [r12]
	vmovaps	ymmword ptr [rsp + 128], ymm0
	vmovaps	ymm0, ymmword ptr [rax]
	vmovaps	ymmword ptr [rsp + 288], ymm0
	#APP
	# TEST3 a * b + c -- P a = u1.p; P b = u2.p; P c = u3.p;
	#NO_APP
	vmovapd	ymm0, ymmword ptr [rsp + 224]
	vmovapd	ymm1, ymmword ptr [rsp + 128]
	vfmadd213pd	ymm1, ymm0, ymmword ptr [rsp + 288]
	vmovapd	ymmword ptr [rsp + 256], ymm1
	movsxd	rsi, dword ptr [r11]
	vmovsd	xmm0, qword ptr [rsp + 8*rsi + 96] # xmm0 = mem[0],zero
	vmulsd	xmm0, xmm0, qword ptr [rsp + 8*rsi + 160]
	vaddsd	xmm6, xmm0, qword ptr [rsp + 8*rsi + 64]
	vucomisd	xmm6, qword ptr [rsp + 8*rsi + 256]
	jne	.LBB8_49
	jp	.LBB8_49
# BB#48:
	movsxd	rsi, dword ptr [r11 + 4]
	vmovsd	xmm0, qword ptr [rsp + 8*rsi + 96] # xmm0 = mem[0],zero
	vmulsd	xmm0, xmm0, qword ptr [rsp + 8*rsi + 160]
	vaddsd	xmm6, xmm0, qword ptr [rsp + 8*rsi + 64]
	vucomisd	xmm6, qword ptr [rsp + 8*rsi + 256]
	jne	.LBB8_49
	jp	.LBB8_49
# BB#50:
	movsxd	rsi, dword ptr [r11 + 8]
	vmovsd	xmm0, qword ptr [rsp + 8*rsi + 96] # xmm0 = mem[0],zero
	vmulsd	xmm0, xmm0, qword ptr [rsp + 8*rsi + 160]
	vaddsd	xmm6, xmm0, qword ptr [rsp + 8*rsi + 64]
	vucomisd	xmm6, qword ptr [rsp + 8*rsi + 256]
	jne	.LBB8_49
	jp	.LBB8_49
# BB#51:
	movsxd	rsi, dword ptr [r11 + 12]
	vmovsd	xmm0, qword ptr [rsp + 8*rsi + 96] # xmm0 = mem[0],zero
	vmulsd	xmm0, xmm0, qword ptr [rsp + 8*rsi + 160]
	vaddsd	xmm6, xmm0, qword ptr [rsp + 8*rsi + 64]
	vucomisd	xmm6, qword ptr [rsp + 8*rsi + 256]
	jne	.LBB8_49
	jp	.LBB8_49
# BB#52:
	inc	dword ptr [r10]
	vmovaps	xmm6, xmmword ptr [rbp + 192] # 16-byte Reload
	lea	rsp, [rbp + 216]
	pop	rbx
	pop	rdi
	pop	rsi
	pop	r12
	pop	r13
	pop	r14
	pop	r15
	pop	rbp
	vzeroupper
	ret
.LBB8_32:
	lea	r14, [rsp + 8*rsi + 64]
	movabs	rcx, _ZSt4cerr
	movabs	rdx, .L.str.1
	vzeroupper
	call	_ZStlsISt11char_traitsIcEERSt13basic_ostreamIcT_ES5_PKc
	movabs	rdx, _ZTSN4math6pack4dE
	mov	rcx, rax
	call	_ZStlsISt11char_traitsIcEERSt13basic_ostreamIcT_ES5_PKc
	movabs	rdx, .L.str.2
	mov	rcx, rax
	call	_ZStlsISt11char_traitsIcEERSt13basic_ostreamIcT_ES5_PKc
	movabs	rcx, _ZTId
	mov	rdi, qword ptr [rcx + 8]
	lea	rbx, [rdi + 1]
	cmp	byte ptr [rdi], 42
	mov	rdx, rdi
	cmove	rdx, rbx
	mov	rcx, rax
	call	_ZStlsISt11char_traitsIcEERSt13basic_ostreamIcT_ES5_PKc
	movabs	r15, .L.str.10
	mov	rcx, rax
	mov	rdx, r15
	call	_ZStlsISt11char_traitsIcEERSt13basic_ostreamIcT_ES5_PKc
	cmp	byte ptr [rdi], 42
	cmove	rdi, rbx
	mov	rcx, rax
	mov	rdx, rdi
	call	_ZStlsISt11char_traitsIcEERSt13basic_ostreamIcT_ES5_PKc
	mov	rcx, rax
	mov	rdx, r15
	call	_ZStlsISt11char_traitsIcEERSt13basic_ostreamIcT_ES5_PKc
	movabs	rdx, .L.str.3
	mov	rcx, rax
	call	_ZStlsISt11char_traitsIcEERSt13basic_ostreamIcT_ES5_PKc
	lea	rdx, [rsp + 160]
	mov	rcx, rax
	call	_ZlsIN4math6pack4dEERSoS2_7printerIT_E
	movabs	rdi, .L.str.4
	mov	rcx, rax
	mov	rdx, rdi
	call	_ZStlsISt11char_traitsIcEERSt13basic_ostreamIcT_ES5_PKc
	movabs	rbx, .L.str.11
	mov	rcx, rax
	mov	rdx, rbx
	call	_ZStlsISt11char_traitsIcEERSt13basic_ostreamIcT_ES5_PKc
	lea	rdx, [rsp + 224]
	mov	rcx, rax
	call	_ZlsIdERSoS0_7printerIT_E
	jmp	.LBB8_33
.LBB8_37:
	lea	r14, [rsp + 8*rsi + 64]
	movabs	rcx, _ZSt4cerr
	movabs	rdx, .L.str.1
	vzeroupper
	call	_ZStlsISt11char_traitsIcEERSt13basic_ostreamIcT_ES5_PKc
	movabs	rcx, _ZTId
	mov	rdi, qword ptr [rcx + 8]
	lea	rbx, [rdi + 1]
	cmp	byte ptr [rdi], 42
	mov	rdx, rdi
	cmove	rdx, rbx
	mov	rcx, rax
	call	_ZStlsISt11char_traitsIcEERSt13basic_ostreamIcT_ES5_PKc
	movabs	rdx, .L.str.2
	mov	rcx, rax
	call	_ZStlsISt11char_traitsIcEERSt13basic_ostreamIcT_ES5_PKc
	movabs	rdx, _ZTSN4math6pack4dE
	mov	rcx, rax
	call	_ZStlsISt11char_traitsIcEERSt13basic_ostreamIcT_ES5_PKc
	movabs	r15, .L.str.10
	mov	rcx, rax
	mov	rdx, r15
	call	_ZStlsISt11char_traitsIcEERSt13basic_ostreamIcT_ES5_PKc
	cmp	byte ptr [rdi], 42
	cmove	rdi, rbx
	mov	rcx, rax
	mov	rdx, rdi
	call	_ZStlsISt11char_traitsIcEERSt13basic_ostreamIcT_ES5_PKc
	mov	rcx, rax
	mov	rdx, r15
	call	_ZStlsISt11char_traitsIcEERSt13basic_ostreamIcT_ES5_PKc
	movabs	rdx, .L.str.3
	mov	rcx, rax
	call	_ZStlsISt11char_traitsIcEERSt13basic_ostreamIcT_ES5_PKc
	lea	rdx, [rsp + 224]
	mov	rcx, rax
	call	_ZlsIdERSoS0_7printerIT_E
	movabs	rdi, .L.str.4
	mov	rcx, rax
	mov	rdx, rdi
	call	_ZStlsISt11char_traitsIcEERSt13basic_ostreamIcT_ES5_PKc
	movabs	rbx, .L.str.11
	mov	rcx, rax
	mov	rdx, rbx
	call	_ZStlsISt11char_traitsIcEERSt13basic_ostreamIcT_ES5_PKc
	lea	rdx, [rsp + 160]
	mov	rcx, rax
	call	_ZlsIN4math6pack4dEERSoS2_7printerIT_E
.LBB8_33:
	mov	rcx, rax
	mov	rdx, rdi
	call	_ZStlsISt11char_traitsIcEERSt13basic_ostreamIcT_ES5_PKc
	mov	rcx, rax
	mov	rdx, rbx
	call	_ZStlsISt11char_traitsIcEERSt13basic_ostreamIcT_ES5_PKc
	lea	rdx, [rsp + 128]
	mov	rcx, rax
	call	_ZlsIdERSoS0_7printerIT_E
	jmp	.LBB8_34
.LBB8_39:
	lea	r14, [rsp + 8*rsi + 128]
	movabs	rcx, _ZSt4cerr
	movabs	rdx, .L.str.1
	vzeroupper
	call	_ZStlsISt11char_traitsIcEERSt13basic_ostreamIcT_ES5_PKc
	movabs	rdi, _ZTSN4math6pack4dE
	mov	rcx, rax
	mov	rdx, rdi
	call	_ZStlsISt11char_traitsIcEERSt13basic_ostreamIcT_ES5_PKc
	movabs	rdx, .L.str.2
	mov	rcx, rax
	call	_ZStlsISt11char_traitsIcEERSt13basic_ostreamIcT_ES5_PKc
	mov	rcx, rax
	mov	rdx, rdi
	call	_ZStlsISt11char_traitsIcEERSt13basic_ostreamIcT_ES5_PKc
	movabs	rdi, .L.str.10
	mov	rcx, rax
	mov	rdx, rdi
	call	_ZStlsISt11char_traitsIcEERSt13basic_ostreamIcT_ES5_PKc
	movabs	rcx, _ZTId
	mov	rcx, qword ptr [rcx + 8]
	lea	rdx, [rcx + 1]
	cmp	byte ptr [rcx], 42
	cmovne	rdx, rcx
	mov	rcx, rax
	call	_ZStlsISt11char_traitsIcEERSt13basic_ostreamIcT_ES5_PKc
	mov	rcx, rax
	mov	rdx, rdi
	call	_ZStlsISt11char_traitsIcEERSt13basic_ostreamIcT_ES5_PKc
	movabs	rdx, .L.str.3
	mov	rcx, rax
	call	_ZStlsISt11char_traitsIcEERSt13basic_ostreamIcT_ES5_PKc
	lea	rdx, [rsp + 64]
	mov	rcx, rax
	call	_ZlsIN4math6pack4dEERSoS2_7printerIT_E
	movabs	rdi, .L.str.4
	mov	rcx, rax
	mov	rdx, rdi
	call	_ZStlsISt11char_traitsIcEERSt13basic_ostreamIcT_ES5_PKc
	movabs	rbx, .L.str.11
	mov	rcx, rax
	mov	rdx, rbx
	call	_ZStlsISt11char_traitsIcEERSt13basic_ostreamIcT_ES5_PKc
	lea	rdx, [rsp + 224]
	mov	rcx, rax
	call	_ZlsIN4math6pack4dEERSoS2_7printerIT_E
	mov	rcx, rax
	mov	rdx, rdi
	call	_ZStlsISt11char_traitsIcEERSt13basic_ostreamIcT_ES5_PKc
	mov	rcx, rax
	mov	rdx, rbx
	call	_ZStlsISt11char_traitsIcEERSt13basic_ostreamIcT_ES5_PKc
	lea	rdx, [rsp + 288]
	mov	rcx, rax
	call	_ZlsIdERSoS0_7printerIT_E
	jmp	.LBB8_45
.LBB8_41:
	lea	r14, [rsp + 8*rsi + 64]
	movabs	rcx, _ZSt4cerr
	movabs	rdx, .L.str.1
	vzeroupper
	call	_ZStlsISt11char_traitsIcEERSt13basic_ostreamIcT_ES5_PKc
	movabs	rcx, _ZTId
	mov	rdi, qword ptr [rcx + 8]
	lea	rbx, [rdi + 1]
	cmp	byte ptr [rdi], 42
	mov	rdx, rdi
	cmove	rdx, rbx
	mov	rcx, rax
	call	_ZStlsISt11char_traitsIcEERSt13basic_ostreamIcT_ES5_PKc
	movabs	rdx, .L.str.2
	mov	rcx, rax
	call	_ZStlsISt11char_traitsIcEERSt13basic_ostreamIcT_ES5_PKc
	cmp	byte ptr [rdi], 42
	cmove	rdi, rbx
	mov	rcx, rax
	mov	rdx, rdi
	call	_ZStlsISt11char_traitsIcEERSt13basic_ostreamIcT_ES5_PKc
	movabs	rdi, .L.str.10
	mov	rcx, rax
	mov	rdx, rdi
	call	_ZStlsISt11char_traitsIcEERSt13basic_ostreamIcT_ES5_PKc
	movabs	rdx, _ZTSN4math6pack4dE
	mov	rcx, rax
	call	_ZStlsISt11char_traitsIcEERSt13basic_ostreamIcT_ES5_PKc
	mov	rcx, rax
	mov	rdx, rdi
	call	_ZStlsISt11char_traitsIcEERSt13basic_ostreamIcT_ES5_PKc
	movabs	rdx, .L.str.3
	mov	rcx, rax
	call	_ZStlsISt11char_traitsIcEERSt13basic_ostreamIcT_ES5_PKc
	lea	rdx, [rsp + 224]
	mov	rcx, rax
	call	_ZlsIdERSoS0_7printerIT_E
	movabs	rdi, .L.str.4
	mov	rcx, rax
	mov	rdx, rdi
	call	_ZStlsISt11char_traitsIcEERSt13basic_ostreamIcT_ES5_PKc
	movabs	rbx, .L.str.11
	mov	rcx, rax
	mov	rdx, rbx
	call	_ZStlsISt11char_traitsIcEERSt13basic_ostreamIcT_ES5_PKc
	lea	rdx, [rsp + 128]
	mov	rcx, rax
	call	_ZlsIdERSoS0_7printerIT_E
	mov	rcx, rax
	mov	rdx, rdi
	call	_ZStlsISt11char_traitsIcEERSt13basic_ostreamIcT_ES5_PKc
	mov	rcx, rax
	mov	rdx, rbx
	call	_ZStlsISt11char_traitsIcEERSt13basic_ostreamIcT_ES5_PKc
	lea	rdx, [rsp + 160]
	mov	rcx, rax
	call	_ZlsIN4math6pack4dEERSoS2_7printerIT_E
.LBB8_34:
	mov	rcx, rax
	mov	rdx, rdi
	call	_ZStlsISt11char_traitsIcEERSt13basic_ostreamIcT_ES5_PKc
	movabs	rdx, .L.str.5
	mov	rcx, rax
	call	_ZStlsISt11char_traitsIcEERSt13basic_ostreamIcT_ES5_PKc
	lea	rdx, [rsp + 64]
	jmp	.LBB8_35
.LBB8_43:
	lea	r14, [rsp + 8*rsi + 128]
	movabs	rcx, _ZSt4cerr
	movabs	rdx, .L.str.1
	vzeroupper
	call	_ZStlsISt11char_traitsIcEERSt13basic_ostreamIcT_ES5_PKc
	movabs	rdi, _ZTSN4math6pack4dE
	mov	rcx, rax
	mov	rdx, rdi
	call	_ZStlsISt11char_traitsIcEERSt13basic_ostreamIcT_ES5_PKc
	movabs	rdx, .L.str.2
	mov	rcx, rax
	call	_ZStlsISt11char_traitsIcEERSt13basic_ostreamIcT_ES5_PKc
	movabs	rcx, _ZTId
	mov	rcx, qword ptr [rcx + 8]
	lea	rdx, [rcx + 1]
	cmp	byte ptr [rcx], 42
	cmovne	rdx, rcx
	mov	rcx, rax
	call	_ZStlsISt11char_traitsIcEERSt13basic_ostreamIcT_ES5_PKc
	movabs	rbx, .L.str.10
	mov	rcx, rax
	mov	rdx, rbx
	call	_ZStlsISt11char_traitsIcEERSt13basic_ostreamIcT_ES5_PKc
	mov	rcx, rax
	mov	rdx, rdi
	call	_ZStlsISt11char_traitsIcEERSt13basic_ostreamIcT_ES5_PKc
	mov	rcx, rax
	mov	rdx, rbx
	call	_ZStlsISt11char_traitsIcEERSt13basic_ostreamIcT_ES5_PKc
	movabs	rdx, .L.str.3
	mov	rcx, rax
	call	_ZStlsISt11char_traitsIcEERSt13basic_ostreamIcT_ES5_PKc
	lea	rdx, [rsp + 64]
	mov	rcx, rax
	call	_ZlsIN4math6pack4dEERSoS2_7printerIT_E
	movabs	rdi, .L.str.4
	mov	rcx, rax
	mov	rdx, rdi
	call	_ZStlsISt11char_traitsIcEERSt13basic_ostreamIcT_ES5_PKc
	movabs	rbx, .L.str.11
	mov	rcx, rax
	mov	rdx, rbx
	call	_ZStlsISt11char_traitsIcEERSt13basic_ostreamIcT_ES5_PKc
	lea	rdx, [rsp + 288]
	mov	rcx, rax
	call	_ZlsIdERSoS0_7printerIT_E
	jmp	.LBB8_44
.LBB8_47:
	lea	r14, [rsp + 8*rsi + 128]
	movabs	rcx, _ZSt4cerr
	movabs	rdx, .L.str.1
	vzeroupper
	call	_ZStlsISt11char_traitsIcEERSt13basic_ostreamIcT_ES5_PKc
	movabs	rcx, _ZTId
	mov	rcx, qword ptr [rcx + 8]
	lea	rdx, [rcx + 1]
	cmp	byte ptr [rcx], 42
	cmovne	rdx, rcx
	mov	rcx, rax
	call	_ZStlsISt11char_traitsIcEERSt13basic_ostreamIcT_ES5_PKc
	movabs	rdx, .L.str.2
	mov	rcx, rax
	call	_ZStlsISt11char_traitsIcEERSt13basic_ostreamIcT_ES5_PKc
	movabs	rdi, _ZTSN4math6pack4dE
	mov	rcx, rax
	mov	rdx, rdi
	call	_ZStlsISt11char_traitsIcEERSt13basic_ostreamIcT_ES5_PKc
	movabs	rbx, .L.str.10
	mov	rcx, rax
	mov	rdx, rbx
	call	_ZStlsISt11char_traitsIcEERSt13basic_ostreamIcT_ES5_PKc
	mov	rcx, rax
	mov	rdx, rdi
	call	_ZStlsISt11char_traitsIcEERSt13basic_ostreamIcT_ES5_PKc
	mov	rcx, rax
	mov	rdx, rbx
	call	_ZStlsISt11char_traitsIcEERSt13basic_ostreamIcT_ES5_PKc
	movabs	rdx, .L.str.3
	mov	rcx, rax
	call	_ZStlsISt11char_traitsIcEERSt13basic_ostreamIcT_ES5_PKc
	lea	rdx, [rsp + 288]
	mov	rcx, rax
	call	_ZlsIdERSoS0_7printerIT_E
	movabs	rdi, .L.str.4
	mov	rcx, rax
	mov	rdx, rdi
	call	_ZStlsISt11char_traitsIcEERSt13basic_ostreamIcT_ES5_PKc
	movabs	rbx, .L.str.11
	mov	rcx, rax
	mov	rdx, rbx
	call	_ZStlsISt11char_traitsIcEERSt13basic_ostreamIcT_ES5_PKc
	lea	rdx, [rsp + 64]
	mov	rcx, rax
	call	_ZlsIN4math6pack4dEERSoS2_7printerIT_E
.LBB8_44:
	mov	rcx, rax
	mov	rdx, rdi
	call	_ZStlsISt11char_traitsIcEERSt13basic_ostreamIcT_ES5_PKc
	mov	rcx, rax
	mov	rdx, rbx
	call	_ZStlsISt11char_traitsIcEERSt13basic_ostreamIcT_ES5_PKc
	lea	rdx, [rsp + 224]
	mov	rcx, rax
	call	_ZlsIN4math6pack4dEERSoS2_7printerIT_E
.LBB8_45:
	mov	rcx, rax
	mov	rdx, rdi
	call	_ZStlsISt11char_traitsIcEERSt13basic_ostreamIcT_ES5_PKc
	movabs	rdx, .L.str.5
	mov	rcx, rax
	call	_ZStlsISt11char_traitsIcEERSt13basic_ostreamIcT_ES5_PKc
	lea	rdx, [rsp + 128]
	jmp	.LBB8_35
.LBB8_49:
	lea	r14, [rsp + 8*rsi + 256]
	movabs	rcx, _ZSt4cerr
	movabs	rdx, .L.str.1
	vzeroupper
	call	_ZStlsISt11char_traitsIcEERSt13basic_ostreamIcT_ES5_PKc
	movabs	rdi, _ZTSN4math6pack4dE
	mov	rcx, rax
	mov	rdx, rdi
	call	_ZStlsISt11char_traitsIcEERSt13basic_ostreamIcT_ES5_PKc
	movabs	rdx, .L.str.2
	mov	rcx, rax
	call	_ZStlsISt11char_traitsIcEERSt13basic_ostreamIcT_ES5_PKc
	mov	rcx, rax
	mov	rdx, rdi
	call	_ZStlsISt11char_traitsIcEERSt13basic_ostreamIcT_ES5_PKc
	movabs	rbx, .L.str.10
	mov	rcx, rax
	mov	rdx, rbx
	call	_ZStlsISt11char_traitsIcEERSt13basic_ostreamIcT_ES5_PKc
	mov	rcx, rax
	mov	rdx, rdi
	call	_ZStlsISt11char_traitsIcEERSt13basic_ostreamIcT_ES5_PKc
	mov	rcx, rax
	mov	rdx, rbx
	call	_ZStlsISt11char_traitsIcEERSt13basic_ostreamIcT_ES5_PKc
	movabs	rdx, .L.str.3
	mov	rcx, rax
	call	_ZStlsISt11char_traitsIcEERSt13basic_ostreamIcT_ES5_PKc
	lea	rdx, [rsp + 224]
	mov	rcx, rax
	call	_ZlsIN4math6pack4dEERSoS2_7printerIT_E
	movabs	rdi, .L.str.4
	mov	rcx, rax
	mov	rdx, rdi
	call	_ZStlsISt11char_traitsIcEERSt13basic_ostreamIcT_ES5_PKc
	movabs	rbx, .L.str.11
	mov	rcx, rax
	mov	rdx, rbx
	call	_ZStlsISt11char_traitsIcEERSt13basic_ostreamIcT_ES5_PKc
	lea	rdx, [rsp + 128]
	mov	rcx, rax
	call	_ZlsIN4math6pack4dEERSoS2_7printerIT_E
	mov	rcx, rax
	mov	rdx, rdi
	call	_ZStlsISt11char_traitsIcEERSt13basic_ostreamIcT_ES5_PKc
	mov	rcx, rax
	mov	rdx, rbx
	call	_ZStlsISt11char_traitsIcEERSt13basic_ostreamIcT_ES5_PKc
	lea	rdx, [rsp + 288]
	mov	rcx, rax
	call	_ZlsIN4math6pack4dEERSoS2_7printerIT_E
	mov	rcx, rax
	mov	rdx, rdi
	call	_ZStlsISt11char_traitsIcEERSt13basic_ostreamIcT_ES5_PKc
	movabs	rdx, .L.str.5
	mov	rcx, rax
	call	_ZStlsISt11char_traitsIcEERSt13basic_ostreamIcT_ES5_PKc
	lea	rdx, [rsp + 256]
.LBB8_35:
	mov	rcx, rax
	call	_ZlsIN4math6pack4dEERSoS2_7printerIT_E
	mov	rcx, rax
	mov	rdx, rdi
	call	_ZStlsISt11char_traitsIcEERSt13basic_ostreamIcT_ES5_PKc
	movabs	rdx, .L.str.14
	mov	rcx, rax
	call	_ZStlsISt11char_traitsIcEERSt13basic_ostreamIcT_ES5_PKc
	movabs	rdx, .L.str.7
	mov	rcx, rax
	call	_ZStlsISt11char_traitsIcEERSt13basic_ostreamIcT_ES5_PKc
	mov	rcx, rax
	mov	edx, esi
	call	_ZNSolsEi
	movabs	rdx, .L.str.8
	mov	rcx, rax
	call	_ZStlsISt11char_traitsIcEERSt13basic_ostreamIcT_ES5_PKc
	mov	rcx, rax
	vmovapd	xmm1, xmm6
	call	_ZNSo9_M_insertIdEERSoT_
	movabs	rdx, .L.str.9
	mov	rcx, rax
	call	_ZStlsISt11char_traitsIcEERSt13basic_ostreamIcT_ES5_PKc
	vmovsd	xmm1, qword ptr [r14]   # xmm1 = mem[0],zero
	jmp	.LBB8_25
.LBB8_1:
	mov	ebx, r14d
	lea	rdi, [rsp + 8*rsi + 64]
	jmp	.LBB8_4
.LBB8_3:
	lea	rdi, [rsp + 8*rdi + 64]
	mov	ebx, r13d
	jmp	.LBB8_4
.LBB8_106:
	lea	rdi, [rsp + 8*rdx + 64]
	mov	ebx, r8d
	jmp	.LBB8_4
.LBB8_108:
	lea	rdi, [rsp + 8*rax + 64]
	mov	ebx, r9d
.LBB8_4:
	movabs	rcx, _ZSt4cerr
	movabs	rdx, .L.str.1
	vzeroupper
	call	_ZStlsISt11char_traitsIcEERSt13basic_ostreamIcT_ES5_PKc
	movabs	rdx, _ZTSN4math6pack4dE
	mov	rcx, rax
	call	_ZStlsISt11char_traitsIcEERSt13basic_ostreamIcT_ES5_PKc
	movabs	rdx, .L.str.2
	mov	rcx, rax
	call	_ZStlsISt11char_traitsIcEERSt13basic_ostreamIcT_ES5_PKc
	movabs	rdx, .L.str.3
	mov	rcx, rax
	call	_ZStlsISt11char_traitsIcEERSt13basic_ostreamIcT_ES5_PKc
	lea	rdx, [rsp + 160]
	mov	rcx, rax
	call	_ZlsIN4math6pack4dEERSoS2_7printerIT_E
	movabs	rsi, .L.str.4
	mov	rcx, rax
	mov	rdx, rsi
	call	_ZStlsISt11char_traitsIcEERSt13basic_ostreamIcT_ES5_PKc
	movabs	rdx, .L.str.5
	mov	rcx, rax
	call	_ZStlsISt11char_traitsIcEERSt13basic_ostreamIcT_ES5_PKc
	lea	rdx, [rsp + 64]
	mov	rcx, rax
	call	_ZlsIN4math6pack4dEERSoS2_7printerIT_E
	mov	rcx, rax
	mov	rdx, rsi
	call	_ZStlsISt11char_traitsIcEERSt13basic_ostreamIcT_ES5_PKc
	movabs	rdx, .L.str.6
	mov	rcx, rax
	call	_ZStlsISt11char_traitsIcEERSt13basic_ostreamIcT_ES5_PKc
	movabs	rdx, .L.str.7
	mov	rcx, rax
	call	_ZStlsISt11char_traitsIcEERSt13basic_ostreamIcT_ES5_PKc
	mov	rcx, rax
	mov	edx, ebx
	call	_ZNSolsEi
	movabs	rdx, .L.str.8
	mov	rcx, rax
	call	_ZStlsISt11char_traitsIcEERSt13basic_ostreamIcT_ES5_PKc
	mov	rcx, rax
	vmovapd	xmm1, xmm6
	call	_ZNSo9_M_insertIdEERSoT_
	movabs	rdx, .L.str.9
	mov	rcx, rax
	call	_ZStlsISt11char_traitsIcEERSt13basic_ostreamIcT_ES5_PKc
	vmovsd	xmm1, qword ptr [rdi]   # xmm1 = mem[0],zero
	mov	rcx, rax
	call	_ZNSo9_M_insertIdEERSoT_
	mov	rcx, rax
	mov	rdx, rsi
	jmp	.LBB8_26
.LBB8_110:
	lea	rsi, [rsp + 8*rsi + 128]
	mov	ebx, r14d
	jmp	.LBB8_7
.LBB8_6:
	mov	ebx, r13d
	lea	rsi, [rsp + 8*rdi + 128]
	jmp	.LBB8_7
.LBB8_100:
	lea	rsi, [rsp + 8*rdx + 128]
	mov	ebx, r8d
	jmp	.LBB8_7
.LBB8_102:
	lea	rsi, [rsp + 8*rax + 128]
	mov	ebx, r9d
.LBB8_7:
	movabs	rcx, _ZSt4cerr
	movabs	rdx, .L.str.1
	vzeroupper
	call	_ZStlsISt11char_traitsIcEERSt13basic_ostreamIcT_ES5_PKc
	movabs	rdi, _ZTSN4math6pack4dE
	mov	rcx, rax
	mov	rdx, rdi
	call	_ZStlsISt11char_traitsIcEERSt13basic_ostreamIcT_ES5_PKc
	movabs	rdx, .L.str.2
	mov	rcx, rax
	call	_ZStlsISt11char_traitsIcEERSt13basic_ostreamIcT_ES5_PKc
	mov	rcx, rax
	mov	rdx, rdi
	call	_ZStlsISt11char_traitsIcEERSt13basic_ostreamIcT_ES5_PKc
	movabs	rdx, .L.str.10
	mov	rcx, rax
	call	_ZStlsISt11char_traitsIcEERSt13basic_ostreamIcT_ES5_PKc
	movabs	rdx, .L.str.3
	mov	rcx, rax
	call	_ZStlsISt11char_traitsIcEERSt13basic_ostreamIcT_ES5_PKc
	lea	rdx, [rsp + 64]
	mov	rcx, rax
	call	_ZlsIN4math6pack4dEERSoS2_7printerIT_E
	movabs	rdi, .L.str.4
	mov	rcx, rax
	mov	rdx, rdi
	call	_ZStlsISt11char_traitsIcEERSt13basic_ostreamIcT_ES5_PKc
	movabs	rdx, .L.str.11
	mov	rcx, rax
	call	_ZStlsISt11char_traitsIcEERSt13basic_ostreamIcT_ES5_PKc
	lea	rdx, [rsp + 224]
	mov	rcx, rax
	call	_ZlsIN4math6pack4dEERSoS2_7printerIT_E
	mov	rcx, rax
	mov	rdx, rdi
	call	_ZStlsISt11char_traitsIcEERSt13basic_ostreamIcT_ES5_PKc
	movabs	rdx, .L.str.5
	mov	rcx, rax
	call	_ZStlsISt11char_traitsIcEERSt13basic_ostreamIcT_ES5_PKc
	lea	rdx, [rsp + 128]
	jmp	.LBB8_8
.LBB8_104:
	lea	rsi, [rsp + 8*rsi + 64]
	mov	ebx, dword ptr [rsp + 220] # 4-byte Reload
	jmp	.LBB8_11
.LBB8_10:
	mov	ebx, r13d
	lea	rsi, [rsp + 8*rdi + 64]
	jmp	.LBB8_11
.LBB8_94:
	lea	rsi, [rsp + 8*rdx + 64]
	mov	ebx, r8d
	jmp	.LBB8_11
.LBB8_96:
	lea	rsi, [rsp + 8*rax + 64]
	mov	ebx, r9d
.LBB8_11:
	movabs	rcx, _ZSt4cerr
	movabs	rdx, .L.str.1
	vzeroupper
	call	_ZStlsISt11char_traitsIcEERSt13basic_ostreamIcT_ES5_PKc
	movabs	rcx, _ZTId
	mov	rcx, qword ptr [rcx + 8]
	lea	rdx, [rcx + 1]
	cmp	byte ptr [rcx], 42
	cmovne	rdx, rcx
	mov	rcx, rax
	call	_ZStlsISt11char_traitsIcEERSt13basic_ostreamIcT_ES5_PKc
	movabs	rdx, .L.str.2
	mov	rcx, rax
	call	_ZStlsISt11char_traitsIcEERSt13basic_ostreamIcT_ES5_PKc
	movabs	rdx, _ZTSN4math6pack4dE
	mov	rcx, rax
	call	_ZStlsISt11char_traitsIcEERSt13basic_ostreamIcT_ES5_PKc
	movabs	rdx, .L.str.10
	mov	rcx, rax
	call	_ZStlsISt11char_traitsIcEERSt13basic_ostreamIcT_ES5_PKc
	movabs	rdx, .L.str.3
	mov	rcx, rax
	call	_ZStlsISt11char_traitsIcEERSt13basic_ostreamIcT_ES5_PKc
	lea	rdx, [rsp + 224]
	mov	rcx, rax
	call	_ZlsIdERSoS0_7printerIT_E
	movabs	rdi, .L.str.4
	mov	rcx, rax
	mov	rdx, rdi
	call	_ZStlsISt11char_traitsIcEERSt13basic_ostreamIcT_ES5_PKc
	movabs	rdx, .L.str.11
	mov	rcx, rax
	call	_ZStlsISt11char_traitsIcEERSt13basic_ostreamIcT_ES5_PKc
	lea	rdx, [rsp + 160]
	mov	rcx, rax
	call	_ZlsIN4math6pack4dEERSoS2_7printerIT_E
	mov	rcx, rax
	mov	rdx, rdi
	call	_ZStlsISt11char_traitsIcEERSt13basic_ostreamIcT_ES5_PKc
	movabs	rdx, .L.str.5
	mov	rcx, rax
	call	_ZStlsISt11char_traitsIcEERSt13basic_ostreamIcT_ES5_PKc
	lea	rdx, [rsp + 64]
.LBB8_8:
	mov	rcx, rax
	call	_ZlsIN4math6pack4dEERSoS2_7printerIT_E
	mov	rcx, rax
	mov	rdx, rdi
	call	_ZStlsISt11char_traitsIcEERSt13basic_ostreamIcT_ES5_PKc
	movabs	rdx, .L.str.12
	mov	rcx, rax
	call	_ZStlsISt11char_traitsIcEERSt13basic_ostreamIcT_ES5_PKc
	movabs	rdx, .L.str.7
	mov	rcx, rax
	call	_ZStlsISt11char_traitsIcEERSt13basic_ostreamIcT_ES5_PKc
	mov	rcx, rax
	mov	edx, ebx
	jmp	.LBB8_24
.LBB8_98:
	lea	rsi, [rsp + 8*rsi + 64]
	mov	eax, dword ptr [rsp + 220] # 4-byte Reload
	mov	dword ptr [rsp + 60], eax # 4-byte Spill
	jmp	.LBB8_14
.LBB8_13:
	lea	rsi, [rsp + 8*rdi + 64]
	jmp	.LBB8_14
.LBB8_88:
	lea	rsi, [rsp + 8*rdx + 64]
	mov	dword ptr [rsp + 60], r8d # 4-byte Spill
	jmp	.LBB8_14
.LBB8_90:
	lea	rsi, [rsp + 8*rax + 64]
	mov	dword ptr [rsp + 60], r9d # 4-byte Spill
.LBB8_14:
	movabs	rcx, _ZSt4cerr
	movabs	rdx, .L.str.1
	vzeroupper
	call	_ZStlsISt11char_traitsIcEERSt13basic_ostreamIcT_ES5_PKc
	movabs	rdx, _ZTSN4math6pack4dE
	mov	rcx, rax
	call	_ZStlsISt11char_traitsIcEERSt13basic_ostreamIcT_ES5_PKc
	movabs	rdx, .L.str.2
	mov	rcx, rax
	call	_ZStlsISt11char_traitsIcEERSt13basic_ostreamIcT_ES5_PKc
	movabs	rcx, _ZTId
	mov	rcx, qword ptr [rcx + 8]
	lea	rdx, [rcx + 1]
	cmp	byte ptr [rcx], 42
	cmovne	rdx, rcx
	mov	rcx, rax
	call	_ZStlsISt11char_traitsIcEERSt13basic_ostreamIcT_ES5_PKc
	movabs	rdx, .L.str.10
	mov	rcx, rax
	call	_ZStlsISt11char_traitsIcEERSt13basic_ostreamIcT_ES5_PKc
	movabs	rdx, .L.str.3
	mov	rcx, rax
	call	_ZStlsISt11char_traitsIcEERSt13basic_ostreamIcT_ES5_PKc
	lea	rdx, [rsp + 160]
	mov	rcx, rax
	call	_ZlsIN4math6pack4dEERSoS2_7printerIT_E
	movabs	rdi, .L.str.4
	mov	rcx, rax
	mov	rdx, rdi
	call	_ZStlsISt11char_traitsIcEERSt13basic_ostreamIcT_ES5_PKc
	movabs	rdx, .L.str.11
	mov	rcx, rax
	call	_ZStlsISt11char_traitsIcEERSt13basic_ostreamIcT_ES5_PKc
	lea	rdx, [rsp + 224]
	mov	rcx, rax
	call	_ZlsIdERSoS0_7printerIT_E
	mov	rcx, rax
	mov	rdx, rdi
	call	_ZStlsISt11char_traitsIcEERSt13basic_ostreamIcT_ES5_PKc
	movabs	rdx, .L.str.5
	mov	rcx, rax
	call	_ZStlsISt11char_traitsIcEERSt13basic_ostreamIcT_ES5_PKc
	lea	rdx, [rsp + 64]
	mov	rcx, rax
	call	_ZlsIN4math6pack4dEERSoS2_7printerIT_E
	mov	rcx, rax
	mov	rdx, rdi
	call	_ZStlsISt11char_traitsIcEERSt13basic_ostreamIcT_ES5_PKc
	movabs	rdx, .L.str.12
	jmp	.LBB8_23
.LBB8_92:
	lea	rsi, [rsp + 8*rsi + 128]
	mov	eax, dword ptr [rsp + 220] # 4-byte Reload
	mov	dword ptr [rsp + 60], eax # 4-byte Spill
	jmp	.LBB8_17
.LBB8_16:
	lea	rsi, [rsp + 8*rdi + 128]
	jmp	.LBB8_17
.LBB8_82:
	lea	rsi, [rsp + 8*rdx + 128]
	mov	dword ptr [rsp + 60], r8d # 4-byte Spill
	jmp	.LBB8_17
.LBB8_84:
	lea	rsi, [rsp + 8*rax + 128]
	mov	dword ptr [rsp + 60], r9d # 4-byte Spill
.LBB8_17:
	movabs	rcx, _ZSt4cerr
	movabs	rdx, .L.str.1
	vzeroupper
	call	_ZStlsISt11char_traitsIcEERSt13basic_ostreamIcT_ES5_PKc
	movabs	rdi, _ZTSN4math6pack4dE
	mov	rcx, rax
	mov	rdx, rdi
	call	_ZStlsISt11char_traitsIcEERSt13basic_ostreamIcT_ES5_PKc
	movabs	rdx, .L.str.2
	mov	rcx, rax
	call	_ZStlsISt11char_traitsIcEERSt13basic_ostreamIcT_ES5_PKc
	mov	rcx, rax
	mov	rdx, rdi
	call	_ZStlsISt11char_traitsIcEERSt13basic_ostreamIcT_ES5_PKc
	movabs	rdx, .L.str.10
	mov	rcx, rax
	call	_ZStlsISt11char_traitsIcEERSt13basic_ostreamIcT_ES5_PKc
	movabs	rdx, .L.str.3
	mov	rcx, rax
	call	_ZStlsISt11char_traitsIcEERSt13basic_ostreamIcT_ES5_PKc
	lea	rdx, [rsp + 64]
	mov	rcx, rax
	call	_ZlsIN4math6pack4dEERSoS2_7printerIT_E
	movabs	rdi, .L.str.4
	mov	rcx, rax
	mov	rdx, rdi
	call	_ZStlsISt11char_traitsIcEERSt13basic_ostreamIcT_ES5_PKc
	movabs	rdx, .L.str.11
	mov	rcx, rax
	call	_ZStlsISt11char_traitsIcEERSt13basic_ostreamIcT_ES5_PKc
	lea	rdx, [rsp + 224]
	mov	rcx, rax
	call	_ZlsIN4math6pack4dEERSoS2_7printerIT_E
	mov	rcx, rax
	mov	rdx, rdi
	call	_ZStlsISt11char_traitsIcEERSt13basic_ostreamIcT_ES5_PKc
	movabs	rdx, .L.str.5
	mov	rcx, rax
	call	_ZStlsISt11char_traitsIcEERSt13basic_ostreamIcT_ES5_PKc
	lea	rdx, [rsp + 128]
	jmp	.LBB8_22
.LBB8_86:
	lea	rsi, [rsp + 8*rsi + 64]
	mov	eax, dword ptr [rsp + 220] # 4-byte Reload
	mov	dword ptr [rsp + 60], eax # 4-byte Spill
	jmp	.LBB8_20
.LBB8_19:
	lea	rsi, [rsp + 8*rdi + 64]
	jmp	.LBB8_20
.LBB8_76:
	lea	rsi, [rsp + 8*rdx + 64]
	mov	dword ptr [rsp + 60], r8d # 4-byte Spill
	jmp	.LBB8_20
.LBB8_78:
	lea	rsi, [rsp + 8*rax + 64]
	mov	dword ptr [rsp + 60], r9d # 4-byte Spill
.LBB8_20:
	movabs	rcx, _ZSt4cerr
	movabs	rdx, .L.str.1
	vzeroupper
	call	_ZStlsISt11char_traitsIcEERSt13basic_ostreamIcT_ES5_PKc
	movabs	rcx, _ZTId
	mov	rcx, qword ptr [rcx + 8]
	lea	rdx, [rcx + 1]
	cmp	byte ptr [rcx], 42
	cmovne	rdx, rcx
	mov	rcx, rax
	call	_ZStlsISt11char_traitsIcEERSt13basic_ostreamIcT_ES5_PKc
	movabs	rdx, .L.str.2
	mov	rcx, rax
	call	_ZStlsISt11char_traitsIcEERSt13basic_ostreamIcT_ES5_PKc
	movabs	rdx, _ZTSN4math6pack4dE
	mov	rcx, rax
	call	_ZStlsISt11char_traitsIcEERSt13basic_ostreamIcT_ES5_PKc
	movabs	rdx, .L.str.10
	mov	rcx, rax
	call	_ZStlsISt11char_traitsIcEERSt13basic_ostreamIcT_ES5_PKc
	movabs	rdx, .L.str.3
	mov	rcx, rax
	call	_ZStlsISt11char_traitsIcEERSt13basic_ostreamIcT_ES5_PKc
	lea	rdx, [rsp + 224]
	mov	rcx, rax
	call	_ZlsIdERSoS0_7printerIT_E
	movabs	rdi, .L.str.4
	mov	rcx, rax
	mov	rdx, rdi
	call	_ZStlsISt11char_traitsIcEERSt13basic_ostreamIcT_ES5_PKc
	movabs	rdx, .L.str.11
	mov	rcx, rax
	call	_ZStlsISt11char_traitsIcEERSt13basic_ostreamIcT_ES5_PKc
	lea	rdx, [rsp + 160]
	mov	rcx, rax
	call	_ZlsIN4math6pack4dEERSoS2_7printerIT_E
	jmp	.LBB8_21
.LBB8_80:
	lea	rsi, [rsp + 8*rsi + 64]
	mov	eax, dword ptr [rsp + 220] # 4-byte Reload
	mov	dword ptr [rsp + 60], eax # 4-byte Spill
	jmp	.LBB8_29
.LBB8_28:
	lea	rsi, [rsp + 8*rdi + 64]
	jmp	.LBB8_29
.LBB8_72:
	lea	rsi, [rsp + 8*rdx + 64]
	mov	dword ptr [rsp + 60], r8d # 4-byte Spill
	jmp	.LBB8_29
.LBB8_74:
	lea	rsi, [rsp + 8*rax + 64]
	mov	dword ptr [rsp + 60], r9d # 4-byte Spill
.LBB8_29:
	movabs	rcx, _ZSt4cerr
	movabs	rdx, .L.str.1
	vzeroupper
	call	_ZStlsISt11char_traitsIcEERSt13basic_ostreamIcT_ES5_PKc
	movabs	rdx, _ZTSN4math6pack4dE
	mov	rcx, rax
	call	_ZStlsISt11char_traitsIcEERSt13basic_ostreamIcT_ES5_PKc
	movabs	rdx, .L.str.2
	mov	rcx, rax
	call	_ZStlsISt11char_traitsIcEERSt13basic_ostreamIcT_ES5_PKc
	movabs	rcx, _ZTId
	mov	rcx, qword ptr [rcx + 8]
	lea	rdx, [rcx + 1]
	cmp	byte ptr [rcx], 42
	cmovne	rdx, rcx
	mov	rcx, rax
	call	_ZStlsISt11char_traitsIcEERSt13basic_ostreamIcT_ES5_PKc
	movabs	rdx, .L.str.10
	mov	rcx, rax
	call	_ZStlsISt11char_traitsIcEERSt13basic_ostreamIcT_ES5_PKc
	movabs	rdx, .L.str.3
	mov	rcx, rax
	call	_ZStlsISt11char_traitsIcEERSt13basic_ostreamIcT_ES5_PKc
	lea	rdx, [rsp + 160]
	mov	rcx, rax
	call	_ZlsIN4math6pack4dEERSoS2_7printerIT_E
	movabs	rdi, .L.str.4
	mov	rcx, rax
	mov	rdx, rdi
	call	_ZStlsISt11char_traitsIcEERSt13basic_ostreamIcT_ES5_PKc
	movabs	rdx, .L.str.11
	mov	rcx, rax
	call	_ZStlsISt11char_traitsIcEERSt13basic_ostreamIcT_ES5_PKc
	lea	rdx, [rsp + 224]
	mov	rcx, rax
	call	_ZlsIdERSoS0_7printerIT_E
.LBB8_21:
	mov	rcx, rax
	mov	rdx, rdi
	call	_ZStlsISt11char_traitsIcEERSt13basic_ostreamIcT_ES5_PKc
	movabs	rdx, .L.str.5
	mov	rcx, rax
	call	_ZStlsISt11char_traitsIcEERSt13basic_ostreamIcT_ES5_PKc
	lea	rdx, [rsp + 64]
.LBB8_22:
	mov	rcx, rax
	call	_ZlsIN4math6pack4dEERSoS2_7printerIT_E
	mov	rcx, rax
	mov	rdx, rdi
	call	_ZStlsISt11char_traitsIcEERSt13basic_ostreamIcT_ES5_PKc
	movabs	rdx, .L.str.13
.LBB8_23:
	mov	rcx, rax
	call	_ZStlsISt11char_traitsIcEERSt13basic_ostreamIcT_ES5_PKc
	movabs	rdx, .L.str.7
	mov	rcx, rax
	call	_ZStlsISt11char_traitsIcEERSt13basic_ostreamIcT_ES5_PKc
	mov	rcx, rax
	mov	edx, dword ptr [rsp + 60] # 4-byte Reload
.LBB8_24:
	call	_ZNSolsEi
	movabs	rdx, .L.str.8
	mov	rcx, rax
	call	_ZStlsISt11char_traitsIcEERSt13basic_ostreamIcT_ES5_PKc
	mov	rcx, rax
	vmovapd	xmm1, xmm6
	call	_ZNSo9_M_insertIdEERSoT_
	movabs	rdx, .L.str.9
	mov	rcx, rax
	call	_ZStlsISt11char_traitsIcEERSt13basic_ostreamIcT_ES5_PKc
	vmovsd	xmm1, qword ptr [rsi]   # xmm1 = mem[0],zero
.LBB8_25:
	mov	rcx, rax
	call	_ZNSo9_M_insertIdEERSoT_
	mov	rcx, rax
	mov	rdx, rdi
.LBB8_26:
	call	_ZStlsISt11char_traitsIcEERSt13basic_ostreamIcT_ES5_PKc
	mov	ecx, 1
	call	exit
	ud2
	.seh_handlerdata
	.section	.text,"xr",discard,_Z12test_pack_spIdN4math6pack4dEEvPKT0_
.Lcfi76:
	.seh_endproc

	.def	 _Z12test_pack_spIN4math6scalarENS0_6pack4dEEvPKT0_;
	.scl	2;
	.type	32;
	.endef
	.section	.text,"xr",discard,_Z12test_pack_spIN4math6scalarENS0_6pack4dEEvPKT0_
	.globl	_Z12test_pack_spIN4math6scalarENS0_6pack4dEEvPKT0_
	.p2align	4, 0x90
_Z12test_pack_spIN4math6scalarENS0_6pack4dEEvPKT0_: # @_Z12test_pack_spIN4math6scalarENS0_6pack4dEEvPKT0_
.Lcfi77:
.seh_proc _Z12test_pack_spIN4math6scalarENS0_6pack4dEEvPKT0_
# BB#0:
	push	rbp
.Lcfi78:
	.seh_pushreg 5
	push	r15
.Lcfi79:
	.seh_pushreg 15
	push	r14
.Lcfi80:
	.seh_pushreg 14
	push	r13
.Lcfi81:
	.seh_pushreg 13
	push	r12
.Lcfi82:
	.seh_pushreg 12
	push	rsi
.Lcfi83:
	.seh_pushreg 6
	push	rdi
.Lcfi84:
	.seh_pushreg 7
	push	rbx
.Lcfi85:
	.seh_pushreg 3
	sub	rsp, 344
.Lcfi86:
	.seh_stackalloc 344
	lea	rbp, [rsp + 128]
.Lcfi87:
	.seh_setframe 5, 128
	vmovaps	xmmword ptr [rbp + 192], xmm6 # 16-byte Spill
.Lcfi88:
	.seh_savexmm 6, 320
.Lcfi89:
	.seh_endprologue
	and	rsp, -32
	vmovaps	ymm0, ymmword ptr [rcx]
	vmovaps	ymmword ptr [rsp + 96], ymm0
	vmovaps	ymm0, ymmword ptr [rcx]
	vmovaps	ymmword ptr [rsp + 160], ymm0
	vmovapd	ymm0, ymmword ptr [rcx]
	vmovapd	ymmword ptr [rsp + 64], ymm0
	movabs	r11, _ZN6layoutIN4math6pack4dEE1iE
	mov	r14d, dword ptr [r11]
	movsxd	rsi, r14d
	vmovsd	xmm6, qword ptr [rsp + 8*rsi + 96] # xmm6 = mem[0],zero
	vucomisd	xmm6, qword ptr [rsp + 8*rsi + 64]
	jne	.LBB9_1
	jp	.LBB9_1
# BB#2:
	mov	r13d, dword ptr [r11 + 4]
	movsxd	rdi, r13d
	vmovsd	xmm6, qword ptr [rsp + 8*rdi + 96] # xmm6 = mem[0],zero
	vucomisd	xmm6, qword ptr [rsp + 8*rdi + 64]
	jne	.LBB9_3
	jp	.LBB9_3
# BB#111:
	mov	r8d, dword ptr [r11 + 8]
	movsxd	rdx, r8d
	vmovsd	xmm6, qword ptr [rsp + 8*rdx + 96] # xmm6 = mem[0],zero
	vucomisd	xmm6, qword ptr [rsp + 8*rdx + 64]
	jne	.LBB9_112
	jp	.LBB9_112
# BB#113:
	mov	r9d, dword ptr [r11 + 12]
	movsxd	rax, r9d
	vmovsd	xmm6, qword ptr [rsp + 8*rax + 96] # xmm6 = mem[0],zero
	vucomisd	xmm6, qword ptr [rsp + 8*rax + 64]
	jne	.LBB9_114
	jp	.LBB9_114
# BB#115:
	movabs	r10, count
	mov	r15d, dword ptr [r10]
	lea	ebx, [r15 + 1]
	mov	dword ptr [r10], ebx
	vmovaps	ymm0, ymmword ptr [rcx]
	vmovaps	ymmword ptr [rsp + 96], ymm0
	vmovaps	ymm0, ymmword ptr [rcx + 32]
	vmovaps	ymmword ptr [rsp + 160], ymm0
	vmovaps	ymm0, ymmword ptr [rcx]
	vmovaps	ymmword ptr [rsp + 64], ymm0
	vmovaps	ymm0, ymmword ptr [rcx + 32]
	vmovaps	ymmword ptr [rsp + 224], ymm0
	vmovapd	ymm0, ymmword ptr [rsp + 64]
	vmulpd	ymm0, ymm0, ymmword ptr [rsp + 224]
	vmovapd	ymmword ptr [rsp + 128], ymm0
	vmovsd	xmm0, qword ptr [rsp + 8*rsi + 96] # xmm0 = mem[0],zero
	vmulsd	xmm6, xmm0, qword ptr [rsp + 8*rsi + 160]
	vucomisd	xmm6, qword ptr [rsp + 8*rsi + 128]
	jne	.LBB9_116
	jp	.LBB9_116
# BB#5:
	vmovsd	xmm0, qword ptr [rsp + 8*rdi + 96] # xmm0 = mem[0],zero
	vmulsd	xmm6, xmm0, qword ptr [rsp + 8*rdi + 160]
	vucomisd	xmm6, qword ptr [rsp + 8*rdi + 128]
	jne	.LBB9_6
	jp	.LBB9_6
# BB#105:
	vmovsd	xmm0, qword ptr [rsp + 8*rdx + 96] # xmm0 = mem[0],zero
	vmulsd	xmm6, xmm0, qword ptr [rsp + 8*rdx + 160]
	vucomisd	xmm6, qword ptr [rsp + 8*rdx + 128]
	jne	.LBB9_106
	jp	.LBB9_106
# BB#107:
	mov	dword ptr [rsp + 220], r14d # 4-byte Spill
	vmovsd	xmm0, qword ptr [rsp + 8*rax + 96] # xmm0 = mem[0],zero
	vmulsd	xmm6, xmm0, qword ptr [rsp + 8*rax + 160]
	vucomisd	xmm6, qword ptr [rsp + 8*rax + 128]
	jne	.LBB9_108
	jp	.LBB9_108
# BB#109:
	lea	r12, [rcx + 32]
	lea	ebx, [r15 + 2]
	mov	dword ptr [r10], ebx
	mov	r14, qword ptr [rcx]
	vmovaps	ymm0, ymmword ptr [r12]
	vmovaps	ymmword ptr [rsp + 96], ymm0
	mov	qword ptr [rsp + 224], r14
	vmovaps	ymm0, ymmword ptr [r12]
	vmovaps	ymmword ptr [rsp + 160], ymm0
	vmovq	xmm2, r14
	vpbroadcastq	ymm3, xmm2
	vmulpd	ymm0, ymm3, ymmword ptr [rsp + 160]
	vmovapd	ymmword ptr [rsp + 64], ymm0
	vmulsd	xmm6, xmm2, qword ptr [rsp + 8*rsi + 96]
	vucomisd	xmm6, qword ptr [rsp + 8*rsi + 64]
	jne	.LBB9_110
	jp	.LBB9_110
# BB#8:
	vmulsd	xmm6, xmm2, qword ptr [rsp + 8*rdi + 96]
	vucomisd	xmm6, qword ptr [rsp + 8*rdi + 64]
	jne	.LBB9_9
	jp	.LBB9_9
# BB#99:
	vmulsd	xmm6, xmm2, qword ptr [rsp + 8*rdx + 96]
	vucomisd	xmm6, qword ptr [rsp + 8*rdx + 64]
	jne	.LBB9_100
	jp	.LBB9_100
# BB#101:
	mov	dword ptr [rsp + 60], r13d # 4-byte Spill
	vmulsd	xmm6, xmm2, qword ptr [rsp + 8*rax + 96]
	vucomisd	xmm6, qword ptr [rsp + 8*rax + 64]
	jne	.LBB9_102
	jp	.LBB9_102
# BB#103:
	lea	ebx, [r15 + 3]
	mov	dword ptr [r10], ebx
	vmovaps	ymm0, ymmword ptr [rcx]
	vmovaps	ymmword ptr [rsp + 96], ymm0
	mov	r13, qword ptr [rcx + 32]
	vmovaps	ymm0, ymmword ptr [rcx]
	vmovaps	ymmword ptr [rsp + 160], ymm0
	mov	qword ptr [rsp + 224], r13
	vmovq	xmm0, r13
	vpbroadcastq	ymm1, xmm0
	vmulpd	ymm4, ymm1, ymmword ptr [rsp + 160]
	vmovapd	ymmword ptr [rsp + 64], ymm4
	vmulsd	xmm6, xmm0, qword ptr [rsp + 8*rsi + 96]
	vucomisd	xmm6, qword ptr [rsp + 8*rsi + 64]
	jne	.LBB9_104
	jp	.LBB9_104
# BB#12:
	vmulsd	xmm6, xmm0, qword ptr [rsp + 8*rdi + 96]
	vucomisd	xmm6, qword ptr [rsp + 8*rdi + 64]
	jne	.LBB9_13
	jp	.LBB9_13
# BB#93:
	vmulsd	xmm6, xmm0, qword ptr [rsp + 8*rdx + 96]
	vucomisd	xmm6, qword ptr [rsp + 8*rdx + 64]
	jne	.LBB9_94
	jp	.LBB9_94
# BB#95:
	vmulsd	xmm6, xmm0, qword ptr [rsp + 8*rax + 96]
	vucomisd	xmm6, qword ptr [rsp + 8*rax + 64]
	jne	.LBB9_96
	jp	.LBB9_96
# BB#97:
	lea	ebx, [r15 + 4]
	mov	dword ptr [r10], ebx
	vmovaps	ymm4, ymmword ptr [rcx]
	vmovaps	ymmword ptr [rsp + 96], ymm4
	vmovaps	ymm4, ymmword ptr [r12]
	vmovaps	ymmword ptr [rsp + 160], ymm4
	vmovaps	ymm4, ymmword ptr [rcx]
	vmovaps	ymmword ptr [rsp + 64], ymm4
	vmovaps	ymm4, ymmword ptr [r12]
	vmovaps	ymmword ptr [rsp + 224], ymm4
	vmovapd	ymm4, ymmword ptr [rsp + 64]
	vaddpd	ymm4, ymm4, ymmword ptr [rsp + 224]
	vmovapd	ymmword ptr [rsp + 128], ymm4
	vmovsd	xmm4, qword ptr [rsp + 8*rsi + 96] # xmm4 = mem[0],zero
	vaddsd	xmm6, xmm4, qword ptr [rsp + 8*rsi + 160]
	vucomisd	xmm6, qword ptr [rsp + 8*rsi + 128]
	jne	.LBB9_98
	jp	.LBB9_98
# BB#15:
	vmovsd	xmm4, qword ptr [rsp + 8*rdi + 96] # xmm4 = mem[0],zero
	vaddsd	xmm6, xmm4, qword ptr [rsp + 8*rdi + 160]
	vucomisd	xmm6, qword ptr [rsp + 8*rdi + 128]
	jne	.LBB9_16
	jp	.LBB9_16
# BB#87:
	vmovsd	xmm4, qword ptr [rsp + 8*rdx + 96] # xmm4 = mem[0],zero
	vaddsd	xmm6, xmm4, qword ptr [rsp + 8*rdx + 160]
	vucomisd	xmm6, qword ptr [rsp + 8*rdx + 128]
	jne	.LBB9_88
	jp	.LBB9_88
# BB#89:
	vmovsd	xmm4, qword ptr [rsp + 8*rax + 96] # xmm4 = mem[0],zero
	vaddsd	xmm6, xmm4, qword ptr [rsp + 8*rax + 160]
	vucomisd	xmm6, qword ptr [rsp + 8*rax + 128]
	jne	.LBB9_90
	jp	.LBB9_90
# BB#91:
	lea	ebx, [r15 + 5]
	mov	dword ptr [r10], ebx
	vmovaps	ymm4, ymmword ptr [r12]
	vmovaps	ymmword ptr [rsp + 96], ymm4
	mov	qword ptr [rsp + 224], r14
	vmovapd	ymm4, ymmword ptr [r12]
	vmovapd	ymmword ptr [rsp + 160], ymm4
	vaddpd	ymm3, ymm3, ymmword ptr [rsp + 160]
	vmovapd	ymmword ptr [rsp + 64], ymm3
	vaddsd	xmm6, xmm2, qword ptr [rsp + 8*rsi + 96]
	vucomisd	xmm6, qword ptr [rsp + 8*rsi + 64]
	jne	.LBB9_92
	jp	.LBB9_92
# BB#18:
	vaddsd	xmm6, xmm2, qword ptr [rsp + 8*rdi + 96]
	vucomisd	xmm6, qword ptr [rsp + 8*rdi + 64]
	jne	.LBB9_19
	jp	.LBB9_19
# BB#81:
	vaddsd	xmm6, xmm2, qword ptr [rsp + 8*rdx + 96]
	vucomisd	xmm6, qword ptr [rsp + 8*rdx + 64]
	jne	.LBB9_82
	jp	.LBB9_82
# BB#83:
	vaddsd	xmm6, xmm2, qword ptr [rsp + 8*rax + 96]
	vucomisd	xmm6, qword ptr [rsp + 8*rax + 64]
	jne	.LBB9_84
	jp	.LBB9_84
# BB#85:
	lea	ebx, [r15 + 6]
	mov	dword ptr [r10], ebx
	vmovaps	ymm2, ymmword ptr [rcx]
	vmovaps	ymmword ptr [rsp + 96], ymm2
	vmovaps	ymm2, ymmword ptr [rcx]
	vmovaps	ymmword ptr [rsp + 160], ymm2
	mov	qword ptr [rsp + 224], r13
	vaddpd	ymm2, ymm1, ymmword ptr [rsp + 160]
	vmovapd	ymmword ptr [rsp + 64], ymm2
	vaddsd	xmm6, xmm0, qword ptr [rsp + 8*rsi + 96]
	vucomisd	xmm6, qword ptr [rsp + 8*rsi + 64]
	jne	.LBB9_86
	jp	.LBB9_86
# BB#27:
	vaddsd	xmm6, xmm0, qword ptr [rsp + 8*rdi + 96]
	vucomisd	xmm6, qword ptr [rsp + 8*rdi + 64]
	jne	.LBB9_28
	jp	.LBB9_28
# BB#77:
	vaddsd	xmm6, xmm0, qword ptr [rsp + 8*rdx + 96]
	vucomisd	xmm6, qword ptr [rsp + 8*rdx + 64]
	jne	.LBB9_78
	jp	.LBB9_78
# BB#79:
	vaddsd	xmm6, xmm0, qword ptr [rsp + 8*rax + 96]
	vucomisd	xmm6, qword ptr [rsp + 8*rax + 64]
	jne	.LBB9_80
	jp	.LBB9_80
# BB#30:
	add	r15d, 7
	mov	dword ptr [r10], r15d
	vmovaps	ymm2, ymmword ptr [rcx]
	vmovaps	ymmword ptr [rsp + 96], ymm2
	mov	rax, qword ptr [rcx + 64]
	vmovaps	ymm2, ymmword ptr [rcx]
	vmovaps	ymmword ptr [rsp + 160], ymm2
	mov	qword ptr [rsp + 224], r13
	mov	qword ptr [rsp + 128], rax
	#APP
	# TEST3 a * b + c -- P a = u1.p; S b = u2.d[0]; S c = u3.d[0];
	#NO_APP
	vmovq	xmm2, rax
	vpbroadcastq	ymm3, xmm2
	vfmadd132pd	ymm1, ymm3, ymmword ptr [rsp + 160]
	vmovapd	ymmword ptr [rsp + 64], ymm1
	movsxd	rsi, dword ptr [r11]
	vmovsd	xmm6, qword ptr [rsp + 8*rsi + 96] # xmm6 = mem[0],zero
	vfmadd213sd	xmm6, xmm0, xmm2
	vucomisd	xmm6, qword ptr [rsp + 8*rsi + 64]
	jne	.LBB9_32
	jp	.LBB9_32
# BB#31:
	movsxd	rsi, dword ptr [r11 + 4]
	vmovsd	xmm6, qword ptr [rsp + 8*rsi + 96] # xmm6 = mem[0],zero
	vfmadd213sd	xmm6, xmm0, xmm2
	vucomisd	xmm6, qword ptr [rsp + 8*rsi + 64]
	jne	.LBB9_32
	jp	.LBB9_32
# BB#74:
	movsxd	rsi, dword ptr [r11 + 8]
	vmovsd	xmm6, qword ptr [rsp + 8*rsi + 96] # xmm6 = mem[0],zero
	vfmadd213sd	xmm6, xmm0, xmm2
	vucomisd	xmm6, qword ptr [rsp + 8*rsi + 64]
	jne	.LBB9_32
	jp	.LBB9_32
# BB#75:
	movsxd	rsi, dword ptr [r11 + 12]
	vmovsd	xmm6, qword ptr [rsp + 8*rsi + 96] # xmm6 = mem[0],zero
	vfmadd213sd	xmm6, xmm0, xmm2
	vucomisd	xmm6, qword ptr [rsp + 8*rsi + 64]
	jne	.LBB9_32
	jp	.LBB9_32
# BB#76:
	inc	dword ptr [r10]
	mov	rax, qword ptr [rcx]
	vmovaps	ymm0, ymmword ptr [r12]
	vmovaps	ymmword ptr [rsp + 96], ymm0
	mov	rdx, qword ptr [rcx + 64]
	mov	qword ptr [rsp + 224], rax
	vmovaps	ymm0, ymmword ptr [r12]
	vmovaps	ymmword ptr [rsp + 160], ymm0
	mov	qword ptr [rsp + 128], rdx
	#APP
	# TEST3 a * b + c -- S a = u1.d[0]; P b = u2.p; S c = u3.d[0];
	#NO_APP
	vmovq	xmm0, rax
	vpbroadcastq	ymm2, xmm0
	vmovq	xmm1, rdx
	vpbroadcastq	ymm3, xmm1
	vfmadd231pd	ymm3, ymm2, ymmword ptr [rsp + 160]
	vmovapd	ymmword ptr [rsp + 64], ymm3
	movsxd	rsi, dword ptr [r11]
	vmovdqa	xmm6, xmm0
	vfmadd132sd	xmm6, xmm1, qword ptr [rsp + 8*rsi + 96]
	vucomisd	xmm6, qword ptr [rsp + 8*rsi + 64]
	jne	.LBB9_37
	jp	.LBB9_37
# BB#36:
	movsxd	rsi, dword ptr [r11 + 4]
	vmovdqa	xmm6, xmm0
	vfmadd132sd	xmm6, xmm1, qword ptr [rsp + 8*rsi + 96]
	vucomisd	xmm6, qword ptr [rsp + 8*rsi + 64]
	jne	.LBB9_37
	jp	.LBB9_37
# BB#71:
	movsxd	rsi, dword ptr [r11 + 8]
	vmovdqa	xmm6, xmm0
	vfmadd132sd	xmm6, xmm1, qword ptr [rsp + 8*rsi + 96]
	vucomisd	xmm6, qword ptr [rsp + 8*rsi + 64]
	jne	.LBB9_37
	jp	.LBB9_37
# BB#72:
	movsxd	rsi, dword ptr [r11 + 12]
	vfmadd132sd	xmm0, xmm1, qword ptr [rsp + 8*rsi + 96]
	vucomisd	xmm0, qword ptr [rsp + 8*rsi + 64]
	jne	.LBB9_73
	jp	.LBB9_73
# BB#39:
	inc	dword ptr [r10]
	vmovaps	ymm0, ymmword ptr [rcx]
	vmovaps	ymmword ptr [rsp + 96], ymm0
	vmovaps	ymm0, ymmword ptr [r12]
	vmovaps	ymmword ptr [rsp + 160], ymm0
	mov	rax, qword ptr [rcx + 64]
	vmovaps	ymm0, ymmword ptr [rcx]
	vmovaps	ymmword ptr [rsp + 64], ymm0
	vmovaps	ymm0, ymmword ptr [r12]
	vmovaps	ymmword ptr [rsp + 224], ymm0
	mov	qword ptr [rsp + 288], rax
	#APP
	# TEST3 a * b + c -- P a = u1.p; P b = u2.p; S c = u3.d[0];
	#NO_APP
	vmovapd	ymm1, ymmword ptr [rsp + 64]
	vmovq	xmm0, rax
	vpbroadcastq	ymm2, xmm0
	vfmadd231pd	ymm2, ymm1, ymmword ptr [rsp + 224]
	vmovapd	ymmword ptr [rsp + 128], ymm2
	movsxd	rsi, dword ptr [r11]
	vmovsd	xmm6, qword ptr [rsp + 8*rsi + 96] # xmm6 = mem[0],zero
	vfmadd132sd	xmm6, xmm0, qword ptr [rsp + 8*rsi + 160]
	vucomisd	xmm6, qword ptr [rsp + 8*rsi + 128]
	jne	.LBB9_41
	jp	.LBB9_41
# BB#40:
	movsxd	rsi, dword ptr [r11 + 4]
	vmovsd	xmm6, qword ptr [rsp + 8*rsi + 96] # xmm6 = mem[0],zero
	vfmadd132sd	xmm6, xmm0, qword ptr [rsp + 8*rsi + 160]
	vucomisd	xmm6, qword ptr [rsp + 8*rsi + 128]
	jne	.LBB9_41
	jp	.LBB9_41
# BB#68:
	movsxd	rsi, dword ptr [r11 + 8]
	vmovsd	xmm6, qword ptr [rsp + 8*rsi + 96] # xmm6 = mem[0],zero
	vfmadd132sd	xmm6, xmm0, qword ptr [rsp + 8*rsi + 160]
	vucomisd	xmm6, qword ptr [rsp + 8*rsi + 128]
	jne	.LBB9_41
	jp	.LBB9_41
# BB#69:
	movsxd	rsi, dword ptr [r11 + 12]
	vmovsd	xmm6, qword ptr [rsp + 8*rsi + 96] # xmm6 = mem[0],zero
	vfmadd132sd	xmm6, xmm0, qword ptr [rsp + 8*rsi + 160]
	vucomisd	xmm6, qword ptr [rsp + 8*rsi + 128]
	jne	.LBB9_41
	jp	.LBB9_41
# BB#70:
	inc	dword ptr [r10]
	mov	rax, qword ptr [rcx]
	mov	rdx, qword ptr [rcx + 32]
	vmovaps	ymm0, ymmword ptr [rcx + 64]
	vmovaps	ymmword ptr [rsp + 96], ymm0
	mov	qword ptr [rsp + 224], rax
	mov	qword ptr [rsp + 128], rdx
	vmovaps	ymm0, ymmword ptr [rcx + 64]
	vmovaps	ymmword ptr [rsp + 160], ymm0
	#APP
	# TEST3 a * b + c -- S a = u1.d[0]; S b = u2.d[0]; P c = u3.p;
	#NO_APP
	vmovq	xmm0, rax
	vmovq	xmm1, rdx
	vmulsd	xmm2, xmm0, xmm1
	vbroadcastsd	ymm2, xmm2
	vaddpd	ymm2, ymm2, ymmword ptr [rsp + 160]
	vmovapd	ymmword ptr [rsp + 64], ymm2
	movsxd	rsi, dword ptr [r11]
	vmovapd	xmm6, xmm0
	vfmadd213sd	xmm6, xmm1, qword ptr [rsp + 8*rsi + 96]
	vucomisd	xmm6, qword ptr [rsp + 8*rsi + 64]
	jne	.LBB9_43
	jp	.LBB9_43
# BB#42:
	movsxd	rsi, dword ptr [r11 + 4]
	vmovapd	xmm6, xmm0
	vfmadd213sd	xmm6, xmm1, qword ptr [rsp + 8*rsi + 96]
	vucomisd	xmm6, qword ptr [rsp + 8*rsi + 64]
	jne	.LBB9_43
	jp	.LBB9_43
# BB#65:
	movsxd	rsi, dword ptr [r11 + 8]
	vmovapd	xmm6, xmm0
	vfmadd213sd	xmm6, xmm1, qword ptr [rsp + 8*rsi + 96]
	vucomisd	xmm6, qword ptr [rsp + 8*rsi + 64]
	jne	.LBB9_43
	jp	.LBB9_43
# BB#66:
	movsxd	rsi, dword ptr [r11 + 12]
	vfmadd213sd	xmm0, xmm1, qword ptr [rsp + 8*rsi + 96]
	vucomisd	xmm0, qword ptr [rsp + 8*rsi + 64]
	jne	.LBB9_67
	jp	.LBB9_67
# BB#45:
	lea	rax, [rcx + 64]
	inc	dword ptr [r10]
	vmovaps	ymm0, ymmword ptr [rcx]
	vmovaps	ymmword ptr [rsp + 96], ymm0
	mov	rdx, qword ptr [rcx + 32]
	vmovaps	ymm0, ymmword ptr [rax]
	vmovaps	ymmword ptr [rsp + 160], ymm0
	vmovaps	ymm0, ymmword ptr [rcx]
	vmovaps	ymmword ptr [rsp + 64], ymm0
	mov	qword ptr [rsp + 288], rdx
	vmovaps	ymm0, ymmword ptr [rax]
	vmovaps	ymmword ptr [rsp + 224], ymm0
	#APP
	# TEST3 a * b + c -- P a = u1.p; S b = u2.d[0]; P c = u3.p;
	#NO_APP
	vmovapd	ymm1, ymmword ptr [rsp + 64]
	vmovq	xmm0, rdx
	vpbroadcastq	ymm2, xmm0
	vfmadd213pd	ymm2, ymm1, ymmword ptr [rsp + 224]
	vmovapd	ymmword ptr [rsp + 128], ymm2
	movsxd	rsi, dword ptr [r11]
	vmovsd	xmm6, qword ptr [rsp + 8*rsi + 96] # xmm6 = mem[0],zero
	vfmadd213sd	xmm6, xmm0, qword ptr [rsp + 8*rsi + 160]
	vucomisd	xmm6, qword ptr [rsp + 8*rsi + 128]
	jne	.LBB9_47
	jp	.LBB9_47
# BB#46:
	movsxd	rsi, dword ptr [r11 + 4]
	vmovsd	xmm6, qword ptr [rsp + 8*rsi + 96] # xmm6 = mem[0],zero
	vfmadd213sd	xmm6, xmm0, qword ptr [rsp + 8*rsi + 160]
	vucomisd	xmm6, qword ptr [rsp + 8*rsi + 128]
	jne	.LBB9_47
	jp	.LBB9_47
# BB#62:
	movsxd	rsi, dword ptr [r11 + 8]
	vmovsd	xmm6, qword ptr [rsp + 8*rsi + 96] # xmm6 = mem[0],zero
	vfmadd213sd	xmm6, xmm0, qword ptr [rsp + 8*rsi + 160]
	vucomisd	xmm6, qword ptr [rsp + 8*rsi + 128]
	jne	.LBB9_47
	jp	.LBB9_47
# BB#63:
	movsxd	rsi, dword ptr [r11 + 12]
	vmovsd	xmm6, qword ptr [rsp + 8*rsi + 96] # xmm6 = mem[0],zero
	vfmadd213sd	xmm6, xmm0, qword ptr [rsp + 8*rsi + 160]
	vucomisd	xmm6, qword ptr [rsp + 8*rsi + 128]
	jne	.LBB9_47
	jp	.LBB9_47
# BB#64:
	inc	dword ptr [r10]
	mov	rdx, qword ptr [rcx]
	vmovaps	ymm0, ymmword ptr [r12]
	vmovaps	ymmword ptr [rsp + 96], ymm0
	vmovaps	ymm0, ymmword ptr [rax]
	vmovaps	ymmword ptr [rsp + 160], ymm0
	mov	qword ptr [rsp + 288], rdx
	vmovaps	ymm0, ymmword ptr [r12]
	vmovaps	ymmword ptr [rsp + 64], ymm0
	vmovaps	ymm0, ymmword ptr [rax]
	vmovaps	ymmword ptr [rsp + 224], ymm0
	#APP
	# TEST3 a * b + c -- S a = u1.d[0]; P b = u2.p; P c = u3.p;
	#NO_APP
	vmovq	xmm0, rdx
	vpbroadcastq	ymm1, xmm0
	vmovapd	ymm2, ymmword ptr [rsp + 64]
	vfmadd213pd	ymm2, ymm1, ymmword ptr [rsp + 224]
	vmovapd	ymmword ptr [rsp + 128], ymm2
	movsxd	rsi, dword ptr [r11]
	vmovsd	xmm1, qword ptr [rsp + 8*rsi + 160] # xmm1 = mem[0],zero
	vmovdqa	xmm6, xmm0
	vfmadd132sd	xmm6, xmm1, qword ptr [rsp + 8*rsi + 96]
	vucomisd	xmm6, qword ptr [rsp + 8*rsi + 128]
	jne	.LBB9_51
	jp	.LBB9_51
# BB#50:
	movsxd	rsi, dword ptr [r11 + 4]
	vmovsd	xmm1, qword ptr [rsp + 8*rsi + 160] # xmm1 = mem[0],zero
	vmovdqa	xmm6, xmm0
	vfmadd132sd	xmm6, xmm1, qword ptr [rsp + 8*rsi + 96]
	vucomisd	xmm6, qword ptr [rsp + 8*rsi + 128]
	jne	.LBB9_51
	jp	.LBB9_51
# BB#59:
	movsxd	rsi, dword ptr [r11 + 8]
	vmovsd	xmm1, qword ptr [rsp + 8*rsi + 160] # xmm1 = mem[0],zero
	vmovdqa	xmm6, xmm0
	vfmadd132sd	xmm6, xmm1, qword ptr [rsp + 8*rsi + 96]
	vucomisd	xmm6, qword ptr [rsp + 8*rsi + 128]
	jne	.LBB9_51
	jp	.LBB9_51
# BB#60:
	movsxd	rsi, dword ptr [r11 + 12]
	vmovsd	xmm1, qword ptr [rsp + 8*rsi + 160] # xmm1 = mem[0],zero
	vfmadd132sd	xmm0, xmm1, qword ptr [rsp + 8*rsi + 96]
	vucomisd	xmm0, qword ptr [rsp + 8*rsi + 128]
	jne	.LBB9_61
	jp	.LBB9_61
# BB#53:
	inc	dword ptr [r10]
	vmovaps	ymm0, ymmword ptr [rcx]
	vmovaps	ymmword ptr [rsp + 96], ymm0
	vmovaps	ymm0, ymmword ptr [r12]
	vmovaps	ymmword ptr [rsp + 160], ymm0
	vmovaps	ymm0, ymmword ptr [rax]
	vmovaps	ymmword ptr [rsp + 64], ymm0
	vmovaps	ymm0, ymmword ptr [rcx]
	vmovaps	ymmword ptr [rsp + 224], ymm0
	vmovaps	ymm0, ymmword ptr [r12]
	vmovaps	ymmword ptr [rsp + 128], ymm0
	vmovaps	ymm0, ymmword ptr [rax]
	vmovaps	ymmword ptr [rsp + 288], ymm0
	#APP
	# TEST3 a * b + c -- P a = u1.p; P b = u2.p; P c = u3.p;
	#NO_APP
	vmovapd	ymm0, ymmword ptr [rsp + 224]
	vmovapd	ymm1, ymmword ptr [rsp + 128]
	vfmadd213pd	ymm1, ymm0, ymmword ptr [rsp + 288]
	vmovapd	ymmword ptr [rsp + 256], ymm1
	movsxd	rsi, dword ptr [r11]
	vmovsd	xmm6, qword ptr [rsp + 8*rsi + 96] # xmm6 = mem[0],zero
	vmovsd	xmm0, qword ptr [rsp + 8*rsi + 64] # xmm0 = mem[0],zero
	vfmadd132sd	xmm6, xmm0, qword ptr [rsp + 8*rsi + 160]
	vucomisd	xmm6, qword ptr [rsp + 8*rsi + 256]
	jne	.LBB9_55
	jp	.LBB9_55
# BB#54:
	movsxd	rsi, dword ptr [r11 + 4]
	vmovsd	xmm6, qword ptr [rsp + 8*rsi + 96] # xmm6 = mem[0],zero
	vmovsd	xmm0, qword ptr [rsp + 8*rsi + 64] # xmm0 = mem[0],zero
	vfmadd132sd	xmm6, xmm0, qword ptr [rsp + 8*rsi + 160]
	vucomisd	xmm6, qword ptr [rsp + 8*rsi + 256]
	jne	.LBB9_55
	jp	.LBB9_55
# BB#56:
	movsxd	rsi, dword ptr [r11 + 8]
	vmovsd	xmm6, qword ptr [rsp + 8*rsi + 96] # xmm6 = mem[0],zero
	vmovsd	xmm0, qword ptr [rsp + 8*rsi + 64] # xmm0 = mem[0],zero
	vfmadd132sd	xmm6, xmm0, qword ptr [rsp + 8*rsi + 160]
	vucomisd	xmm6, qword ptr [rsp + 8*rsi + 256]
	jne	.LBB9_55
	jp	.LBB9_55
# BB#57:
	movsxd	rsi, dword ptr [r11 + 12]
	vmovsd	xmm6, qword ptr [rsp + 8*rsi + 96] # xmm6 = mem[0],zero
	vmovsd	xmm0, qword ptr [rsp + 8*rsi + 64] # xmm0 = mem[0],zero
	vfmadd132sd	xmm6, xmm0, qword ptr [rsp + 8*rsi + 160]
	vucomisd	xmm6, qword ptr [rsp + 8*rsi + 256]
	jne	.LBB9_55
	jp	.LBB9_55
# BB#58:
	inc	dword ptr [r10]
	vmovaps	xmm6, xmmword ptr [rbp + 192] # 16-byte Reload
	lea	rsp, [rbp + 216]
	pop	rbx
	pop	rdi
	pop	rsi
	pop	r12
	pop	r13
	pop	r14
	pop	r15
	pop	rbp
	vzeroupper
	ret
.LBB9_32:
	lea	r14, [rsp + 8*rsi + 64]
	movabs	rcx, _ZSt4cerr
	movabs	rdx, .L.str.1
	vzeroupper
	call	_ZStlsISt11char_traitsIcEERSt13basic_ostreamIcT_ES5_PKc
	movabs	rdx, _ZTSN4math6pack4dE
	mov	rcx, rax
	call	_ZStlsISt11char_traitsIcEERSt13basic_ostreamIcT_ES5_PKc
	movabs	rdx, .L.str.2
	mov	rcx, rax
	call	_ZStlsISt11char_traitsIcEERSt13basic_ostreamIcT_ES5_PKc
	movabs	rdi, _ZTSN4math6scalarE
	mov	rcx, rax
	mov	rdx, rdi
	call	_ZStlsISt11char_traitsIcEERSt13basic_ostreamIcT_ES5_PKc
	movabs	rbx, .L.str.10
	mov	rcx, rax
	mov	rdx, rbx
	call	_ZStlsISt11char_traitsIcEERSt13basic_ostreamIcT_ES5_PKc
	mov	rcx, rax
	mov	rdx, rdi
	call	_ZStlsISt11char_traitsIcEERSt13basic_ostreamIcT_ES5_PKc
	mov	rcx, rax
	mov	rdx, rbx
	call	_ZStlsISt11char_traitsIcEERSt13basic_ostreamIcT_ES5_PKc
	movabs	rdx, .L.str.3
	mov	rcx, rax
	call	_ZStlsISt11char_traitsIcEERSt13basic_ostreamIcT_ES5_PKc
	lea	rdx, [rsp + 160]
	mov	rcx, rax
	call	_ZlsIN4math6pack4dEERSoS2_7printerIT_E
	movabs	rdi, .L.str.4
	mov	rcx, rax
	mov	rdx, rdi
	call	_ZStlsISt11char_traitsIcEERSt13basic_ostreamIcT_ES5_PKc
	movabs	rbx, .L.str.11
	mov	rcx, rax
	mov	rdx, rbx
	call	_ZStlsISt11char_traitsIcEERSt13basic_ostreamIcT_ES5_PKc
	lea	rdx, [rsp + 224]
	mov	rcx, rax
	call	_ZlsIN4math6scalarEERSoS2_7printerIT_E
	jmp	.LBB9_33
.LBB9_41:
	lea	r14, [rsp + 8*rsi + 128]
	movabs	rcx, _ZSt4cerr
	movabs	rdx, .L.str.1
	vzeroupper
	call	_ZStlsISt11char_traitsIcEERSt13basic_ostreamIcT_ES5_PKc
	movabs	rdi, _ZTSN4math6pack4dE
	mov	rcx, rax
	mov	rdx, rdi
	call	_ZStlsISt11char_traitsIcEERSt13basic_ostreamIcT_ES5_PKc
	movabs	rdx, .L.str.2
	mov	rcx, rax
	call	_ZStlsISt11char_traitsIcEERSt13basic_ostreamIcT_ES5_PKc
	mov	rcx, rax
	mov	rdx, rdi
	call	_ZStlsISt11char_traitsIcEERSt13basic_ostreamIcT_ES5_PKc
	movabs	rdi, .L.str.10
	mov	rcx, rax
	mov	rdx, rdi
	call	_ZStlsISt11char_traitsIcEERSt13basic_ostreamIcT_ES5_PKc
	movabs	rdx, _ZTSN4math6scalarE
	mov	rcx, rax
	call	_ZStlsISt11char_traitsIcEERSt13basic_ostreamIcT_ES5_PKc
	mov	rcx, rax
	mov	rdx, rdi
	call	_ZStlsISt11char_traitsIcEERSt13basic_ostreamIcT_ES5_PKc
	movabs	rdx, .L.str.3
	mov	rcx, rax
	call	_ZStlsISt11char_traitsIcEERSt13basic_ostreamIcT_ES5_PKc
	lea	rdx, [rsp + 64]
	mov	rcx, rax
	call	_ZlsIN4math6pack4dEERSoS2_7printerIT_E
	movabs	rdi, .L.str.4
	mov	rcx, rax
	mov	rdx, rdi
	call	_ZStlsISt11char_traitsIcEERSt13basic_ostreamIcT_ES5_PKc
	movabs	rbx, .L.str.11
	mov	rcx, rax
	mov	rdx, rbx
	call	_ZStlsISt11char_traitsIcEERSt13basic_ostreamIcT_ES5_PKc
	lea	rdx, [rsp + 224]
	mov	rcx, rax
	call	_ZlsIN4math6pack4dEERSoS2_7printerIT_E
	mov	rcx, rax
	mov	rdx, rdi
	call	_ZStlsISt11char_traitsIcEERSt13basic_ostreamIcT_ES5_PKc
	mov	rcx, rax
	mov	rdx, rbx
	call	_ZStlsISt11char_traitsIcEERSt13basic_ostreamIcT_ES5_PKc
	lea	rdx, [rsp + 288]
	mov	rcx, rax
	call	_ZlsIN4math6scalarEERSoS2_7printerIT_E
	jmp	.LBB9_49
.LBB9_47:
	lea	r14, [rsp + 8*rsi + 128]
	movabs	rcx, _ZSt4cerr
	movabs	rdx, .L.str.1
	vzeroupper
	call	_ZStlsISt11char_traitsIcEERSt13basic_ostreamIcT_ES5_PKc
	movabs	rdi, _ZTSN4math6pack4dE
	mov	rcx, rax
	mov	rdx, rdi
	call	_ZStlsISt11char_traitsIcEERSt13basic_ostreamIcT_ES5_PKc
	movabs	rdx, .L.str.2
	mov	rcx, rax
	call	_ZStlsISt11char_traitsIcEERSt13basic_ostreamIcT_ES5_PKc
	movabs	rdx, _ZTSN4math6scalarE
	mov	rcx, rax
	call	_ZStlsISt11char_traitsIcEERSt13basic_ostreamIcT_ES5_PKc
	movabs	rbx, .L.str.10
	mov	rcx, rax
	mov	rdx, rbx
	call	_ZStlsISt11char_traitsIcEERSt13basic_ostreamIcT_ES5_PKc
	mov	rcx, rax
	mov	rdx, rdi
	call	_ZStlsISt11char_traitsIcEERSt13basic_ostreamIcT_ES5_PKc
	mov	rcx, rax
	mov	rdx, rbx
	call	_ZStlsISt11char_traitsIcEERSt13basic_ostreamIcT_ES5_PKc
	movabs	rdx, .L.str.3
	mov	rcx, rax
	call	_ZStlsISt11char_traitsIcEERSt13basic_ostreamIcT_ES5_PKc
	lea	rdx, [rsp + 64]
	mov	rcx, rax
	call	_ZlsIN4math6pack4dEERSoS2_7printerIT_E
	movabs	rdi, .L.str.4
	mov	rcx, rax
	mov	rdx, rdi
	call	_ZStlsISt11char_traitsIcEERSt13basic_ostreamIcT_ES5_PKc
	movabs	rbx, .L.str.11
	mov	rcx, rax
	mov	rdx, rbx
	call	_ZStlsISt11char_traitsIcEERSt13basic_ostreamIcT_ES5_PKc
	lea	rdx, [rsp + 288]
	mov	rcx, rax
	call	_ZlsIN4math6scalarEERSoS2_7printerIT_E
	jmp	.LBB9_48
.LBB9_55:
	lea	r14, [rsp + 8*rsi + 256]
	movabs	rcx, _ZSt4cerr
	movabs	rdx, .L.str.1
	vzeroupper
	call	_ZStlsISt11char_traitsIcEERSt13basic_ostreamIcT_ES5_PKc
	movabs	rdi, _ZTSN4math6pack4dE
	mov	rcx, rax
	mov	rdx, rdi
	call	_ZStlsISt11char_traitsIcEERSt13basic_ostreamIcT_ES5_PKc
	movabs	rdx, .L.str.2
	mov	rcx, rax
	call	_ZStlsISt11char_traitsIcEERSt13basic_ostreamIcT_ES5_PKc
	mov	rcx, rax
	mov	rdx, rdi
	call	_ZStlsISt11char_traitsIcEERSt13basic_ostreamIcT_ES5_PKc
	movabs	rbx, .L.str.10
	mov	rcx, rax
	mov	rdx, rbx
	call	_ZStlsISt11char_traitsIcEERSt13basic_ostreamIcT_ES5_PKc
	mov	rcx, rax
	mov	rdx, rdi
	call	_ZStlsISt11char_traitsIcEERSt13basic_ostreamIcT_ES5_PKc
	mov	rcx, rax
	mov	rdx, rbx
	call	_ZStlsISt11char_traitsIcEERSt13basic_ostreamIcT_ES5_PKc
	movabs	rdx, .L.str.3
	mov	rcx, rax
	call	_ZStlsISt11char_traitsIcEERSt13basic_ostreamIcT_ES5_PKc
	lea	rdx, [rsp + 224]
	mov	rcx, rax
	call	_ZlsIN4math6pack4dEERSoS2_7printerIT_E
	movabs	rdi, .L.str.4
	mov	rcx, rax
	mov	rdx, rdi
	call	_ZStlsISt11char_traitsIcEERSt13basic_ostreamIcT_ES5_PKc
	movabs	rbx, .L.str.11
	mov	rcx, rax
	mov	rdx, rbx
	call	_ZStlsISt11char_traitsIcEERSt13basic_ostreamIcT_ES5_PKc
	lea	rdx, [rsp + 128]
	mov	rcx, rax
	call	_ZlsIN4math6pack4dEERSoS2_7printerIT_E
	mov	rcx, rax
	mov	rdx, rdi
	call	_ZStlsISt11char_traitsIcEERSt13basic_ostreamIcT_ES5_PKc
	mov	rcx, rax
	mov	rdx, rbx
	call	_ZStlsISt11char_traitsIcEERSt13basic_ostreamIcT_ES5_PKc
	lea	rdx, [rsp + 288]
	mov	rcx, rax
	call	_ZlsIN4math6pack4dEERSoS2_7printerIT_E
	mov	rcx, rax
	mov	rdx, rdi
	call	_ZStlsISt11char_traitsIcEERSt13basic_ostreamIcT_ES5_PKc
	movabs	rdx, .L.str.5
	mov	rcx, rax
	call	_ZStlsISt11char_traitsIcEERSt13basic_ostreamIcT_ES5_PKc
	lea	rdx, [rsp + 256]
	jmp	.LBB9_35
.LBB9_37:
	lea	r14, [rsp + 8*rsi + 64]
	jmp	.LBB9_38
.LBB9_43:
	lea	r14, [rsp + 8*rsi + 64]
	jmp	.LBB9_44
.LBB9_51:
	lea	r14, [rsp + 8*rsi + 128]
	jmp	.LBB9_52
.LBB9_1:
	mov	ebx, r14d
	lea	rdi, [rsp + 8*rsi + 64]
	jmp	.LBB9_4
.LBB9_3:
	lea	rdi, [rsp + 8*rdi + 64]
	mov	ebx, r13d
	jmp	.LBB9_4
.LBB9_112:
	lea	rdi, [rsp + 8*rdx + 64]
	mov	ebx, r8d
	jmp	.LBB9_4
.LBB9_114:
	lea	rdi, [rsp + 8*rax + 64]
	mov	ebx, r9d
.LBB9_4:
	movabs	rcx, _ZSt4cerr
	movabs	rdx, .L.str.1
	vzeroupper
	call	_ZStlsISt11char_traitsIcEERSt13basic_ostreamIcT_ES5_PKc
	movabs	rdx, _ZTSN4math6pack4dE
	mov	rcx, rax
	call	_ZStlsISt11char_traitsIcEERSt13basic_ostreamIcT_ES5_PKc
	movabs	rdx, .L.str.2
	mov	rcx, rax
	call	_ZStlsISt11char_traitsIcEERSt13basic_ostreamIcT_ES5_PKc
	movabs	rdx, .L.str.3
	mov	rcx, rax
	call	_ZStlsISt11char_traitsIcEERSt13basic_ostreamIcT_ES5_PKc
	lea	rdx, [rsp + 160]
	mov	rcx, rax
	call	_ZlsIN4math6pack4dEERSoS2_7printerIT_E
	movabs	rsi, .L.str.4
	mov	rcx, rax
	mov	rdx, rsi
	call	_ZStlsISt11char_traitsIcEERSt13basic_ostreamIcT_ES5_PKc
	movabs	rdx, .L.str.5
	mov	rcx, rax
	call	_ZStlsISt11char_traitsIcEERSt13basic_ostreamIcT_ES5_PKc
	lea	rdx, [rsp + 64]
	mov	rcx, rax
	call	_ZlsIN4math6pack4dEERSoS2_7printerIT_E
	mov	rcx, rax
	mov	rdx, rsi
	call	_ZStlsISt11char_traitsIcEERSt13basic_ostreamIcT_ES5_PKc
	movabs	rdx, .L.str.6
	mov	rcx, rax
	call	_ZStlsISt11char_traitsIcEERSt13basic_ostreamIcT_ES5_PKc
	movabs	rdx, .L.str.7
	mov	rcx, rax
	call	_ZStlsISt11char_traitsIcEERSt13basic_ostreamIcT_ES5_PKc
	mov	rcx, rax
	mov	edx, ebx
	call	_ZNSolsEi
	movabs	rdx, .L.str.8
	mov	rcx, rax
	call	_ZStlsISt11char_traitsIcEERSt13basic_ostreamIcT_ES5_PKc
	mov	rcx, rax
	vmovapd	xmm1, xmm6
	call	_ZNSo9_M_insertIdEERSoT_
	movabs	rdx, .L.str.9
	mov	rcx, rax
	call	_ZStlsISt11char_traitsIcEERSt13basic_ostreamIcT_ES5_PKc
	vmovsd	xmm1, qword ptr [rdi]   # xmm1 = mem[0],zero
	mov	rcx, rax
	call	_ZNSo9_M_insertIdEERSoT_
	mov	rcx, rax
	mov	rdx, rsi
	jmp	.LBB9_26
.LBB9_116:
	lea	rsi, [rsp + 8*rsi + 128]
	mov	ebx, r14d
	jmp	.LBB9_7
.LBB9_6:
	mov	ebx, r13d
	lea	rsi, [rsp + 8*rdi + 128]
	jmp	.LBB9_7
.LBB9_106:
	lea	rsi, [rsp + 8*rdx + 128]
	mov	ebx, r8d
	jmp	.LBB9_7
.LBB9_108:
	lea	rsi, [rsp + 8*rax + 128]
	mov	ebx, r9d
.LBB9_7:
	movabs	rcx, _ZSt4cerr
	movabs	rdx, .L.str.1
	vzeroupper
	call	_ZStlsISt11char_traitsIcEERSt13basic_ostreamIcT_ES5_PKc
	movabs	rdi, _ZTSN4math6pack4dE
	mov	rcx, rax
	mov	rdx, rdi
	call	_ZStlsISt11char_traitsIcEERSt13basic_ostreamIcT_ES5_PKc
	movabs	rdx, .L.str.2
	mov	rcx, rax
	call	_ZStlsISt11char_traitsIcEERSt13basic_ostreamIcT_ES5_PKc
	mov	rcx, rax
	mov	rdx, rdi
	call	_ZStlsISt11char_traitsIcEERSt13basic_ostreamIcT_ES5_PKc
	movabs	rdx, .L.str.10
	mov	rcx, rax
	call	_ZStlsISt11char_traitsIcEERSt13basic_ostreamIcT_ES5_PKc
	movabs	rdx, .L.str.3
	mov	rcx, rax
	call	_ZStlsISt11char_traitsIcEERSt13basic_ostreamIcT_ES5_PKc
	lea	rdx, [rsp + 64]
	mov	rcx, rax
	call	_ZlsIN4math6pack4dEERSoS2_7printerIT_E
	movabs	rdi, .L.str.4
	mov	rcx, rax
	mov	rdx, rdi
	call	_ZStlsISt11char_traitsIcEERSt13basic_ostreamIcT_ES5_PKc
	movabs	rdx, .L.str.11
	mov	rcx, rax
	call	_ZStlsISt11char_traitsIcEERSt13basic_ostreamIcT_ES5_PKc
	lea	rdx, [rsp + 224]
	mov	rcx, rax
	call	_ZlsIN4math6pack4dEERSoS2_7printerIT_E
	mov	rcx, rax
	mov	rdx, rdi
	call	_ZStlsISt11char_traitsIcEERSt13basic_ostreamIcT_ES5_PKc
	movabs	rdx, .L.str.5
	mov	rcx, rax
	call	_ZStlsISt11char_traitsIcEERSt13basic_ostreamIcT_ES5_PKc
	lea	rdx, [rsp + 128]
	jmp	.LBB9_11
.LBB9_110:
	lea	rsi, [rsp + 8*rsi + 64]
	mov	ebx, dword ptr [rsp + 220] # 4-byte Reload
	jmp	.LBB9_10
.LBB9_9:
	mov	ebx, r13d
	lea	rsi, [rsp + 8*rdi + 64]
	jmp	.LBB9_10
.LBB9_100:
	lea	rsi, [rsp + 8*rdx + 64]
	mov	ebx, r8d
	jmp	.LBB9_10
.LBB9_102:
	lea	rsi, [rsp + 8*rax + 64]
	mov	ebx, r9d
.LBB9_10:
	movabs	rcx, _ZSt4cerr
	movabs	rdx, .L.str.1
	vzeroupper
	call	_ZStlsISt11char_traitsIcEERSt13basic_ostreamIcT_ES5_PKc
	movabs	rdx, _ZTSN4math6scalarE
	mov	rcx, rax
	call	_ZStlsISt11char_traitsIcEERSt13basic_ostreamIcT_ES5_PKc
	movabs	rdx, .L.str.2
	mov	rcx, rax
	call	_ZStlsISt11char_traitsIcEERSt13basic_ostreamIcT_ES5_PKc
	movabs	rdx, _ZTSN4math6pack4dE
	mov	rcx, rax
	call	_ZStlsISt11char_traitsIcEERSt13basic_ostreamIcT_ES5_PKc
	movabs	rdx, .L.str.10
	mov	rcx, rax
	call	_ZStlsISt11char_traitsIcEERSt13basic_ostreamIcT_ES5_PKc
	movabs	rdx, .L.str.3
	mov	rcx, rax
	call	_ZStlsISt11char_traitsIcEERSt13basic_ostreamIcT_ES5_PKc
	lea	rdx, [rsp + 224]
	mov	rcx, rax
	call	_ZlsIN4math6scalarEERSoS2_7printerIT_E
	movabs	rdi, .L.str.4
	mov	rcx, rax
	mov	rdx, rdi
	call	_ZStlsISt11char_traitsIcEERSt13basic_ostreamIcT_ES5_PKc
	movabs	rdx, .L.str.11
	mov	rcx, rax
	call	_ZStlsISt11char_traitsIcEERSt13basic_ostreamIcT_ES5_PKc
	lea	rdx, [rsp + 160]
	mov	rcx, rax
	call	_ZlsIN4math6pack4dEERSoS2_7printerIT_E
	mov	rcx, rax
	mov	rdx, rdi
	call	_ZStlsISt11char_traitsIcEERSt13basic_ostreamIcT_ES5_PKc
	movabs	rdx, .L.str.5
	mov	rcx, rax
	call	_ZStlsISt11char_traitsIcEERSt13basic_ostreamIcT_ES5_PKc
	lea	rdx, [rsp + 64]
.LBB9_11:
	mov	rcx, rax
	call	_ZlsIN4math6pack4dEERSoS2_7printerIT_E
	mov	rcx, rax
	mov	rdx, rdi
	call	_ZStlsISt11char_traitsIcEERSt13basic_ostreamIcT_ES5_PKc
	movabs	rdx, .L.str.12
	mov	rcx, rax
	call	_ZStlsISt11char_traitsIcEERSt13basic_ostreamIcT_ES5_PKc
	movabs	rdx, .L.str.7
	mov	rcx, rax
	call	_ZStlsISt11char_traitsIcEERSt13basic_ostreamIcT_ES5_PKc
	mov	rcx, rax
	mov	edx, ebx
	jmp	.LBB9_24
.LBB9_104:
	lea	rsi, [rsp + 8*rsi + 64]
	mov	eax, dword ptr [rsp + 220] # 4-byte Reload
	mov	dword ptr [rsp + 60], eax # 4-byte Spill
	jmp	.LBB9_14
.LBB9_13:
	lea	rsi, [rsp + 8*rdi + 64]
	jmp	.LBB9_14
.LBB9_94:
	lea	rsi, [rsp + 8*rdx + 64]
	mov	dword ptr [rsp + 60], r8d # 4-byte Spill
	jmp	.LBB9_14
.LBB9_96:
	lea	rsi, [rsp + 8*rax + 64]
	mov	dword ptr [rsp + 60], r9d # 4-byte Spill
.LBB9_14:
	movabs	rcx, _ZSt4cerr
	movabs	rdx, .L.str.1
	vzeroupper
	call	_ZStlsISt11char_traitsIcEERSt13basic_ostreamIcT_ES5_PKc
	movabs	rdx, _ZTSN4math6pack4dE
	mov	rcx, rax
	call	_ZStlsISt11char_traitsIcEERSt13basic_ostreamIcT_ES5_PKc
	movabs	rdx, .L.str.2
	mov	rcx, rax
	call	_ZStlsISt11char_traitsIcEERSt13basic_ostreamIcT_ES5_PKc
	movabs	rdx, _ZTSN4math6scalarE
	mov	rcx, rax
	call	_ZStlsISt11char_traitsIcEERSt13basic_ostreamIcT_ES5_PKc
	movabs	rdx, .L.str.10
	mov	rcx, rax
	call	_ZStlsISt11char_traitsIcEERSt13basic_ostreamIcT_ES5_PKc
	movabs	rdx, .L.str.3
	mov	rcx, rax
	call	_ZStlsISt11char_traitsIcEERSt13basic_ostreamIcT_ES5_PKc
	lea	rdx, [rsp + 160]
	mov	rcx, rax
	call	_ZlsIN4math6pack4dEERSoS2_7printerIT_E
	movabs	rdi, .L.str.4
	mov	rcx, rax
	mov	rdx, rdi
	call	_ZStlsISt11char_traitsIcEERSt13basic_ostreamIcT_ES5_PKc
	movabs	rdx, .L.str.11
	mov	rcx, rax
	call	_ZStlsISt11char_traitsIcEERSt13basic_ostreamIcT_ES5_PKc
	lea	rdx, [rsp + 224]
	mov	rcx, rax
	call	_ZlsIN4math6scalarEERSoS2_7printerIT_E
	mov	rcx, rax
	mov	rdx, rdi
	call	_ZStlsISt11char_traitsIcEERSt13basic_ostreamIcT_ES5_PKc
	movabs	rdx, .L.str.5
	mov	rcx, rax
	call	_ZStlsISt11char_traitsIcEERSt13basic_ostreamIcT_ES5_PKc
	lea	rdx, [rsp + 64]
	mov	rcx, rax
	call	_ZlsIN4math6pack4dEERSoS2_7printerIT_E
	mov	rcx, rax
	mov	rdx, rdi
	call	_ZStlsISt11char_traitsIcEERSt13basic_ostreamIcT_ES5_PKc
	movabs	rdx, .L.str.12
	jmp	.LBB9_23
.LBB9_98:
	lea	rsi, [rsp + 8*rsi + 128]
	mov	eax, dword ptr [rsp + 220] # 4-byte Reload
	mov	dword ptr [rsp + 60], eax # 4-byte Spill
	jmp	.LBB9_17
.LBB9_16:
	lea	rsi, [rsp + 8*rdi + 128]
	jmp	.LBB9_17
.LBB9_88:
	lea	rsi, [rsp + 8*rdx + 128]
	mov	dword ptr [rsp + 60], r8d # 4-byte Spill
	jmp	.LBB9_17
.LBB9_90:
	lea	rsi, [rsp + 8*rax + 128]
	mov	dword ptr [rsp + 60], r9d # 4-byte Spill
.LBB9_17:
	movabs	rcx, _ZSt4cerr
	movabs	rdx, .L.str.1
	vzeroupper
	call	_ZStlsISt11char_traitsIcEERSt13basic_ostreamIcT_ES5_PKc
	movabs	rdi, _ZTSN4math6pack4dE
	mov	rcx, rax
	mov	rdx, rdi
	call	_ZStlsISt11char_traitsIcEERSt13basic_ostreamIcT_ES5_PKc
	movabs	rdx, .L.str.2
	mov	rcx, rax
	call	_ZStlsISt11char_traitsIcEERSt13basic_ostreamIcT_ES5_PKc
	mov	rcx, rax
	mov	rdx, rdi
	call	_ZStlsISt11char_traitsIcEERSt13basic_ostreamIcT_ES5_PKc
	movabs	rdx, .L.str.10
	mov	rcx, rax
	call	_ZStlsISt11char_traitsIcEERSt13basic_ostreamIcT_ES5_PKc
	movabs	rdx, .L.str.3
	mov	rcx, rax
	call	_ZStlsISt11char_traitsIcEERSt13basic_ostreamIcT_ES5_PKc
	lea	rdx, [rsp + 64]
	mov	rcx, rax
	call	_ZlsIN4math6pack4dEERSoS2_7printerIT_E
	movabs	rdi, .L.str.4
	mov	rcx, rax
	mov	rdx, rdi
	call	_ZStlsISt11char_traitsIcEERSt13basic_ostreamIcT_ES5_PKc
	movabs	rdx, .L.str.11
	mov	rcx, rax
	call	_ZStlsISt11char_traitsIcEERSt13basic_ostreamIcT_ES5_PKc
	lea	rdx, [rsp + 224]
	mov	rcx, rax
	call	_ZlsIN4math6pack4dEERSoS2_7printerIT_E
	mov	rcx, rax
	mov	rdx, rdi
	call	_ZStlsISt11char_traitsIcEERSt13basic_ostreamIcT_ES5_PKc
	movabs	rdx, .L.str.5
	mov	rcx, rax
	call	_ZStlsISt11char_traitsIcEERSt13basic_ostreamIcT_ES5_PKc
	lea	rdx, [rsp + 128]
	jmp	.LBB9_22
.LBB9_92:
	lea	rsi, [rsp + 8*rsi + 64]
	mov	eax, dword ptr [rsp + 220] # 4-byte Reload
	mov	dword ptr [rsp + 60], eax # 4-byte Spill
	jmp	.LBB9_20
.LBB9_19:
	lea	rsi, [rsp + 8*rdi + 64]
	jmp	.LBB9_20
.LBB9_82:
	lea	rsi, [rsp + 8*rdx + 64]
	mov	dword ptr [rsp + 60], r8d # 4-byte Spill
	jmp	.LBB9_20
.LBB9_84:
	lea	rsi, [rsp + 8*rax + 64]
	mov	dword ptr [rsp + 60], r9d # 4-byte Spill
.LBB9_20:
	movabs	rcx, _ZSt4cerr
	movabs	rdx, .L.str.1
	vzeroupper
	call	_ZStlsISt11char_traitsIcEERSt13basic_ostreamIcT_ES5_PKc
	movabs	rdx, _ZTSN4math6scalarE
	mov	rcx, rax
	call	_ZStlsISt11char_traitsIcEERSt13basic_ostreamIcT_ES5_PKc
	movabs	rdx, .L.str.2
	mov	rcx, rax
	call	_ZStlsISt11char_traitsIcEERSt13basic_ostreamIcT_ES5_PKc
	movabs	rdx, _ZTSN4math6pack4dE
	mov	rcx, rax
	call	_ZStlsISt11char_traitsIcEERSt13basic_ostreamIcT_ES5_PKc
	movabs	rdx, .L.str.10
	mov	rcx, rax
	call	_ZStlsISt11char_traitsIcEERSt13basic_ostreamIcT_ES5_PKc
	movabs	rdx, .L.str.3
	mov	rcx, rax
	call	_ZStlsISt11char_traitsIcEERSt13basic_ostreamIcT_ES5_PKc
	lea	rdx, [rsp + 224]
	mov	rcx, rax
	call	_ZlsIN4math6scalarEERSoS2_7printerIT_E
	movabs	rdi, .L.str.4
	mov	rcx, rax
	mov	rdx, rdi
	call	_ZStlsISt11char_traitsIcEERSt13basic_ostreamIcT_ES5_PKc
	movabs	rdx, .L.str.11
	mov	rcx, rax
	call	_ZStlsISt11char_traitsIcEERSt13basic_ostreamIcT_ES5_PKc
	lea	rdx, [rsp + 160]
	mov	rcx, rax
	call	_ZlsIN4math6pack4dEERSoS2_7printerIT_E
	jmp	.LBB9_21
.LBB9_86:
	lea	rsi, [rsp + 8*rsi + 64]
	mov	eax, dword ptr [rsp + 220] # 4-byte Reload
	mov	dword ptr [rsp + 60], eax # 4-byte Spill
	jmp	.LBB9_29
.LBB9_28:
	lea	rsi, [rsp + 8*rdi + 64]
	jmp	.LBB9_29
.LBB9_78:
	lea	rsi, [rsp + 8*rdx + 64]
	mov	dword ptr [rsp + 60], r8d # 4-byte Spill
	jmp	.LBB9_29
.LBB9_80:
	lea	rsi, [rsp + 8*rax + 64]
	mov	dword ptr [rsp + 60], r9d # 4-byte Spill
.LBB9_29:
	movabs	rcx, _ZSt4cerr
	movabs	rdx, .L.str.1
	vzeroupper
	call	_ZStlsISt11char_traitsIcEERSt13basic_ostreamIcT_ES5_PKc
	movabs	rdx, _ZTSN4math6pack4dE
	mov	rcx, rax
	call	_ZStlsISt11char_traitsIcEERSt13basic_ostreamIcT_ES5_PKc
	movabs	rdx, .L.str.2
	mov	rcx, rax
	call	_ZStlsISt11char_traitsIcEERSt13basic_ostreamIcT_ES5_PKc
	movabs	rdx, _ZTSN4math6scalarE
	mov	rcx, rax
	call	_ZStlsISt11char_traitsIcEERSt13basic_ostreamIcT_ES5_PKc
	movabs	rdx, .L.str.10
	mov	rcx, rax
	call	_ZStlsISt11char_traitsIcEERSt13basic_ostreamIcT_ES5_PKc
	movabs	rdx, .L.str.3
	mov	rcx, rax
	call	_ZStlsISt11char_traitsIcEERSt13basic_ostreamIcT_ES5_PKc
	lea	rdx, [rsp + 160]
	mov	rcx, rax
	call	_ZlsIN4math6pack4dEERSoS2_7printerIT_E
	movabs	rdi, .L.str.4
	mov	rcx, rax
	mov	rdx, rdi
	call	_ZStlsISt11char_traitsIcEERSt13basic_ostreamIcT_ES5_PKc
	movabs	rdx, .L.str.11
	mov	rcx, rax
	call	_ZStlsISt11char_traitsIcEERSt13basic_ostreamIcT_ES5_PKc
	lea	rdx, [rsp + 224]
	mov	rcx, rax
	call	_ZlsIN4math6scalarEERSoS2_7printerIT_E
.LBB9_21:
	mov	rcx, rax
	mov	rdx, rdi
	call	_ZStlsISt11char_traitsIcEERSt13basic_ostreamIcT_ES5_PKc
	movabs	rdx, .L.str.5
	mov	rcx, rax
	call	_ZStlsISt11char_traitsIcEERSt13basic_ostreamIcT_ES5_PKc
	lea	rdx, [rsp + 64]
.LBB9_22:
	mov	rcx, rax
	call	_ZlsIN4math6pack4dEERSoS2_7printerIT_E
	mov	rcx, rax
	mov	rdx, rdi
	call	_ZStlsISt11char_traitsIcEERSt13basic_ostreamIcT_ES5_PKc
	movabs	rdx, .L.str.13
.LBB9_23:
	mov	rcx, rax
	call	_ZStlsISt11char_traitsIcEERSt13basic_ostreamIcT_ES5_PKc
	movabs	rdx, .L.str.7
	mov	rcx, rax
	call	_ZStlsISt11char_traitsIcEERSt13basic_ostreamIcT_ES5_PKc
	mov	rcx, rax
	mov	edx, dword ptr [rsp + 60] # 4-byte Reload
.LBB9_24:
	call	_ZNSolsEi
	movabs	rdx, .L.str.8
	mov	rcx, rax
	call	_ZStlsISt11char_traitsIcEERSt13basic_ostreamIcT_ES5_PKc
	mov	rcx, rax
	vmovapd	xmm1, xmm6
	call	_ZNSo9_M_insertIdEERSoT_
	movabs	rdx, .L.str.9
	mov	rcx, rax
	call	_ZStlsISt11char_traitsIcEERSt13basic_ostreamIcT_ES5_PKc
	vmovsd	xmm1, qword ptr [rsi]   # xmm1 = mem[0],zero
	jmp	.LBB9_25
.LBB9_73:
	lea	r14, [rsp + 8*rsi + 64]
	vmovapd	xmm6, xmm0
.LBB9_38:
	movabs	rcx, _ZSt4cerr
	movabs	rdx, .L.str.1
	vzeroupper
	call	_ZStlsISt11char_traitsIcEERSt13basic_ostreamIcT_ES5_PKc
	movabs	rdi, _ZTSN4math6scalarE
	mov	rcx, rax
	mov	rdx, rdi
	call	_ZStlsISt11char_traitsIcEERSt13basic_ostreamIcT_ES5_PKc
	movabs	rdx, .L.str.2
	mov	rcx, rax
	call	_ZStlsISt11char_traitsIcEERSt13basic_ostreamIcT_ES5_PKc
	movabs	rdx, _ZTSN4math6pack4dE
	mov	rcx, rax
	call	_ZStlsISt11char_traitsIcEERSt13basic_ostreamIcT_ES5_PKc
	movabs	rbx, .L.str.10
	mov	rcx, rax
	mov	rdx, rbx
	call	_ZStlsISt11char_traitsIcEERSt13basic_ostreamIcT_ES5_PKc
	mov	rcx, rax
	mov	rdx, rdi
	call	_ZStlsISt11char_traitsIcEERSt13basic_ostreamIcT_ES5_PKc
	mov	rcx, rax
	mov	rdx, rbx
	call	_ZStlsISt11char_traitsIcEERSt13basic_ostreamIcT_ES5_PKc
	movabs	rdx, .L.str.3
	mov	rcx, rax
	call	_ZStlsISt11char_traitsIcEERSt13basic_ostreamIcT_ES5_PKc
	lea	rdx, [rsp + 224]
	mov	rcx, rax
	call	_ZlsIN4math6scalarEERSoS2_7printerIT_E
	movabs	rdi, .L.str.4
	mov	rcx, rax
	mov	rdx, rdi
	call	_ZStlsISt11char_traitsIcEERSt13basic_ostreamIcT_ES5_PKc
	movabs	rbx, .L.str.11
	mov	rcx, rax
	mov	rdx, rbx
	call	_ZStlsISt11char_traitsIcEERSt13basic_ostreamIcT_ES5_PKc
	lea	rdx, [rsp + 160]
	mov	rcx, rax
	call	_ZlsIN4math6pack4dEERSoS2_7printerIT_E
.LBB9_33:
	mov	rcx, rax
	mov	rdx, rdi
	call	_ZStlsISt11char_traitsIcEERSt13basic_ostreamIcT_ES5_PKc
	mov	rcx, rax
	mov	rdx, rbx
	call	_ZStlsISt11char_traitsIcEERSt13basic_ostreamIcT_ES5_PKc
	lea	rdx, [rsp + 128]
	mov	rcx, rax
	call	_ZlsIN4math6scalarEERSoS2_7printerIT_E
	jmp	.LBB9_34
.LBB9_67:
	lea	r14, [rsp + 8*rsi + 64]
	vmovapd	xmm6, xmm0
.LBB9_44:
	movabs	rcx, _ZSt4cerr
	movabs	rdx, .L.str.1
	vzeroupper
	call	_ZStlsISt11char_traitsIcEERSt13basic_ostreamIcT_ES5_PKc
	movabs	rdi, _ZTSN4math6scalarE
	mov	rcx, rax
	mov	rdx, rdi
	call	_ZStlsISt11char_traitsIcEERSt13basic_ostreamIcT_ES5_PKc
	movabs	rdx, .L.str.2
	mov	rcx, rax
	call	_ZStlsISt11char_traitsIcEERSt13basic_ostreamIcT_ES5_PKc
	mov	rcx, rax
	mov	rdx, rdi
	call	_ZStlsISt11char_traitsIcEERSt13basic_ostreamIcT_ES5_PKc
	movabs	rdi, .L.str.10
	mov	rcx, rax
	mov	rdx, rdi
	call	_ZStlsISt11char_traitsIcEERSt13basic_ostreamIcT_ES5_PKc
	movabs	rdx, _ZTSN4math6pack4dE
	mov	rcx, rax
	call	_ZStlsISt11char_traitsIcEERSt13basic_ostreamIcT_ES5_PKc
	mov	rcx, rax
	mov	rdx, rdi
	call	_ZStlsISt11char_traitsIcEERSt13basic_ostreamIcT_ES5_PKc
	movabs	rdx, .L.str.3
	mov	rcx, rax
	call	_ZStlsISt11char_traitsIcEERSt13basic_ostreamIcT_ES5_PKc
	lea	rdx, [rsp + 224]
	mov	rcx, rax
	call	_ZlsIN4math6scalarEERSoS2_7printerIT_E
	movabs	rdi, .L.str.4
	mov	rcx, rax
	mov	rdx, rdi
	call	_ZStlsISt11char_traitsIcEERSt13basic_ostreamIcT_ES5_PKc
	movabs	rbx, .L.str.11
	mov	rcx, rax
	mov	rdx, rbx
	call	_ZStlsISt11char_traitsIcEERSt13basic_ostreamIcT_ES5_PKc
	lea	rdx, [rsp + 128]
	mov	rcx, rax
	call	_ZlsIN4math6scalarEERSoS2_7printerIT_E
	mov	rcx, rax
	mov	rdx, rdi
	call	_ZStlsISt11char_traitsIcEERSt13basic_ostreamIcT_ES5_PKc
	mov	rcx, rax
	mov	rdx, rbx
	call	_ZStlsISt11char_traitsIcEERSt13basic_ostreamIcT_ES5_PKc
	lea	rdx, [rsp + 160]
	mov	rcx, rax
	call	_ZlsIN4math6pack4dEERSoS2_7printerIT_E
.LBB9_34:
	mov	rcx, rax
	mov	rdx, rdi
	call	_ZStlsISt11char_traitsIcEERSt13basic_ostreamIcT_ES5_PKc
	movabs	rdx, .L.str.5
	mov	rcx, rax
	call	_ZStlsISt11char_traitsIcEERSt13basic_ostreamIcT_ES5_PKc
	lea	rdx, [rsp + 64]
	jmp	.LBB9_35
.LBB9_61:
	lea	r14, [rsp + 8*rsi + 128]
	vmovapd	xmm6, xmm0
.LBB9_52:
	movabs	rcx, _ZSt4cerr
	movabs	rdx, .L.str.1
	vzeroupper
	call	_ZStlsISt11char_traitsIcEERSt13basic_ostreamIcT_ES5_PKc
	movabs	rdx, _ZTSN4math6scalarE
	mov	rcx, rax
	call	_ZStlsISt11char_traitsIcEERSt13basic_ostreamIcT_ES5_PKc
	movabs	rdx, .L.str.2
	mov	rcx, rax
	call	_ZStlsISt11char_traitsIcEERSt13basic_ostreamIcT_ES5_PKc
	movabs	rdi, _ZTSN4math6pack4dE
	mov	rcx, rax
	mov	rdx, rdi
	call	_ZStlsISt11char_traitsIcEERSt13basic_ostreamIcT_ES5_PKc
	movabs	rbx, .L.str.10
	mov	rcx, rax
	mov	rdx, rbx
	call	_ZStlsISt11char_traitsIcEERSt13basic_ostreamIcT_ES5_PKc
	mov	rcx, rax
	mov	rdx, rdi
	call	_ZStlsISt11char_traitsIcEERSt13basic_ostreamIcT_ES5_PKc
	mov	rcx, rax
	mov	rdx, rbx
	call	_ZStlsISt11char_traitsIcEERSt13basic_ostreamIcT_ES5_PKc
	movabs	rdx, .L.str.3
	mov	rcx, rax
	call	_ZStlsISt11char_traitsIcEERSt13basic_ostreamIcT_ES5_PKc
	lea	rdx, [rsp + 288]
	mov	rcx, rax
	call	_ZlsIN4math6scalarEERSoS2_7printerIT_E
	movabs	rdi, .L.str.4
	mov	rcx, rax
	mov	rdx, rdi
	call	_ZStlsISt11char_traitsIcEERSt13basic_ostreamIcT_ES5_PKc
	movabs	rbx, .L.str.11
	mov	rcx, rax
	mov	rdx, rbx
	call	_ZStlsISt11char_traitsIcEERSt13basic_ostreamIcT_ES5_PKc
	lea	rdx, [rsp + 64]
	mov	rcx, rax
	call	_ZlsIN4math6pack4dEERSoS2_7printerIT_E
.LBB9_48:
	mov	rcx, rax
	mov	rdx, rdi
	call	_ZStlsISt11char_traitsIcEERSt13basic_ostreamIcT_ES5_PKc
	mov	rcx, rax
	mov	rdx, rbx
	call	_ZStlsISt11char_traitsIcEERSt13basic_ostreamIcT_ES5_PKc
	lea	rdx, [rsp + 224]
	mov	rcx, rax
	call	_ZlsIN4math6pack4dEERSoS2_7printerIT_E
.LBB9_49:
	mov	rcx, rax
	mov	rdx, rdi
	call	_ZStlsISt11char_traitsIcEERSt13basic_ostreamIcT_ES5_PKc
	movabs	rdx, .L.str.5
	mov	rcx, rax
	call	_ZStlsISt11char_traitsIcEERSt13basic_ostreamIcT_ES5_PKc
	lea	rdx, [rsp + 128]
.LBB9_35:
	mov	rcx, rax
	call	_ZlsIN4math6pack4dEERSoS2_7printerIT_E
	mov	rcx, rax
	mov	rdx, rdi
	call	_ZStlsISt11char_traitsIcEERSt13basic_ostreamIcT_ES5_PKc
	movabs	rdx, .L.str.14
	mov	rcx, rax
	call	_ZStlsISt11char_traitsIcEERSt13basic_ostreamIcT_ES5_PKc
	movabs	rdx, .L.str.7
	mov	rcx, rax
	call	_ZStlsISt11char_traitsIcEERSt13basic_ostreamIcT_ES5_PKc
	mov	rcx, rax
	mov	edx, esi
	call	_ZNSolsEi
	movabs	rdx, .L.str.8
	mov	rcx, rax
	call	_ZStlsISt11char_traitsIcEERSt13basic_ostreamIcT_ES5_PKc
	mov	rcx, rax
	vmovapd	xmm1, xmm6
	call	_ZNSo9_M_insertIdEERSoT_
	movabs	rdx, .L.str.9
	mov	rcx, rax
	call	_ZStlsISt11char_traitsIcEERSt13basic_ostreamIcT_ES5_PKc
	vmovsd	xmm1, qword ptr [r14]   # xmm1 = mem[0],zero
.LBB9_25:
	mov	rcx, rax
	call	_ZNSo9_M_insertIdEERSoT_
	mov	rcx, rax
	mov	rdx, rdi
.LBB9_26:
	call	_ZStlsISt11char_traitsIcEERSt13basic_ostreamIcT_ES5_PKc
	mov	ecx, 1
	call	exit
	ud2
	.seh_handlerdata
	.section	.text,"xr",discard,_Z12test_pack_spIN4math6scalarENS0_6pack4dEEvPKT0_
.Lcfi90:
	.seh_endproc

	.def	 _ZlsIN4math6pack4dEERSoS2_7printerIT_E;
	.scl	2;
	.type	32;
	.endef
	.section	.text,"xr",discard,_ZlsIN4math6pack4dEERSoS2_7printerIT_E
	.globl	_ZlsIN4math6pack4dEERSoS2_7printerIT_E
	.p2align	4, 0x90
_ZlsIN4math6pack4dEERSoS2_7printerIT_E: # @_ZlsIN4math6pack4dEERSoS2_7printerIT_E
.Lcfi91:
.seh_proc _ZlsIN4math6pack4dEERSoS2_7printerIT_E
# BB#0:
	push	rbp
.Lcfi92:
	.seh_pushreg 5
	push	rsi
.Lcfi93:
	.seh_pushreg 6
	push	rdi
.Lcfi94:
	.seh_pushreg 7
	sub	rsp, 64
.Lcfi95:
	.seh_stackalloc 64
	lea	rbp, [rsp + 64]
.Lcfi96:
	.seh_setframe 5, 64
.Lcfi97:
	.seh_endprologue
	and	rsp, -32
	mov	rsi, rcx
	vmovaps	ymm0, ymmword ptr [rdx]
	vmovaps	ymmword ptr [rsp + 32], ymm0
	movabs	rdi, _ZN6layoutIN4math6pack4dEE1iE
	mov	rax, qword ptr [rsi]
	mov	rax, qword ptr [rax - 24]
	movsxd	rcx, dword ptr [rdi]
	mov	qword ptr [rsi + rax + 16], 4
	vmovsd	xmm1, qword ptr [rsp + 8*rcx + 32] # xmm1 = mem[0],zero
	mov	rcx, rsi
	vzeroupper
	call	_ZNSo9_M_insertIdEERSoT_
	mov	rax, qword ptr [rsi]
	mov	rax, qword ptr [rax - 24]
	movsxd	rcx, dword ptr [rdi + 4]
	mov	qword ptr [rsi + rax + 16], 4
	vmovsd	xmm1, qword ptr [rsp + 8*rcx + 32] # xmm1 = mem[0],zero
	mov	rcx, rsi
	call	_ZNSo9_M_insertIdEERSoT_
	mov	rax, qword ptr [rsi]
	mov	rax, qword ptr [rax - 24]
	movsxd	rcx, dword ptr [rdi + 8]
	mov	qword ptr [rsi + rax + 16], 4
	vmovsd	xmm1, qword ptr [rsp + 8*rcx + 32] # xmm1 = mem[0],zero
	mov	rcx, rsi
	call	_ZNSo9_M_insertIdEERSoT_
	mov	rax, qword ptr [rsi]
	mov	rax, qword ptr [rax - 24]
	movsxd	rcx, dword ptr [rdi + 12]
	mov	qword ptr [rsi + rax + 16], 4
	vmovsd	xmm1, qword ptr [rsp + 8*rcx + 32] # xmm1 = mem[0],zero
	mov	rcx, rsi
	call	_ZNSo9_M_insertIdEERSoT_
	mov	rax, rsi
	mov	rsp, rbp
	pop	rdi
	pop	rsi
	pop	rbp
	ret
	.seh_handlerdata
	.section	.text,"xr",discard,_ZlsIN4math6pack4dEERSoS2_7printerIT_E
.Lcfi98:
	.seh_endproc

	.def	 _Z12test_pack_spId1XEvPKT0_;
	.scl	2;
	.type	32;
	.endef
	.section	.text,"xr",discard,_Z12test_pack_spId1XEvPKT0_
	.globl	_Z12test_pack_spId1XEvPKT0_
	.p2align	4, 0x90
_Z12test_pack_spId1XEvPKT0_:            # @_Z12test_pack_spId1XEvPKT0_
.Lcfi99:
.seh_proc _Z12test_pack_spId1XEvPKT0_
# BB#0:
	push	rbp
.Lcfi100:
	.seh_pushreg 5
	push	r15
.Lcfi101:
	.seh_pushreg 15
	push	r14
.Lcfi102:
	.seh_pushreg 14
	push	r13
.Lcfi103:
	.seh_pushreg 13
	push	r12
.Lcfi104:
	.seh_pushreg 12
	push	rsi
.Lcfi105:
	.seh_pushreg 6
	push	rdi
.Lcfi106:
	.seh_pushreg 7
	push	rbx
.Lcfi107:
	.seh_pushreg 3
	sub	rsp, 600
.Lcfi108:
	.seh_stackalloc 600
	lea	rbp, [rsp + 128]
.Lcfi109:
	.seh_setframe 5, 128
	vmovaps	xmmword ptr [rbp + 448], xmm6 # 16-byte Spill
.Lcfi110:
	.seh_savexmm 6, 576
.Lcfi111:
	.seh_endprologue
	and	rsp, -32
	vmovaps	ymm0, ymmword ptr [rcx]
	vmovaps	ymm1, ymmword ptr [rcx + 32]
	vmovaps	ymmword ptr [rsp + 160], ymm1
	vmovaps	ymmword ptr [rsp + 128], ymm0
	vmovaps	ymm0, ymmword ptr [rcx]
	vmovaps	ymm1, ymmword ptr [rcx + 32]
	vmovaps	ymmword ptr [rsp + 320], ymm1
	vmovaps	ymmword ptr [rsp + 288], ymm0
	vmovapd	ymm0, ymmword ptr [rcx]
	vmovaps	ymm1, ymmword ptr [rcx + 32]
	vmovaps	ymmword ptr [rsp + 96], ymm1
	vmovapd	ymmword ptr [rsp + 64], ymm0
	movabs	rdi, _ZN6layoutI1XE1iE
	mov	eax, dword ptr [rdi]
	movsxd	r15, eax
	vmovsd	xmm6, qword ptr [rsp + 8*r15 + 128] # xmm6 = mem[0],zero
	vucomisd	xmm6, qword ptr [rsp + 8*r15 + 64]
	jne	.LBB11_125
	jp	.LBB11_125
# BB#1:
	mov	r10d, dword ptr [rdi + 4]
	movsxd	r13, r10d
	vmovsd	xmm6, qword ptr [rsp + 8*r13 + 128] # xmm6 = mem[0],zero
	vucomisd	xmm6, qword ptr [rsp + 8*r13 + 64]
	jne	.LBB11_126
	jp	.LBB11_126
# BB#2:
	mov	r11d, dword ptr [rdi + 8]
	movsxd	r12, r11d
	vmovsd	xmm6, qword ptr [rsp + 8*r12 + 128] # xmm6 = mem[0],zero
	vucomisd	xmm6, qword ptr [rsp + 8*r12 + 64]
	jne	.LBB11_127
	jp	.LBB11_127
# BB#3:
	mov	ebx, dword ptr [rdi + 12]
	movsxd	r14, ebx
	vmovsd	xmm6, qword ptr [rsp + 8*r14 + 128] # xmm6 = mem[0],zero
	vucomisd	xmm6, qword ptr [rsp + 8*r14 + 64]
	jne	.LBB11_128
	jp	.LBB11_128
# BB#4:
	mov	esi, dword ptr [rdi + 16]
	movsxd	r8, esi
	vmovsd	xmm6, qword ptr [rsp + 8*r8 + 128] # xmm6 = mem[0],zero
	vucomisd	xmm6, qword ptr [rsp + 8*r8 + 64]
	jne	.LBB11_129
	jp	.LBB11_129
# BB#5:
	mov	dword ptr [rsp + 220], eax # 4-byte Spill
	mov	edx, dword ptr [rdi + 20]
	movsxd	r9, edx
	vmovsd	xmm6, qword ptr [rsp + 8*r9 + 128] # xmm6 = mem[0],zero
	vucomisd	xmm6, qword ptr [rsp + 8*r9 + 64]
	jne	.LBB11_130
	jp	.LBB11_130
# BB#6:
	mov	dword ptr [rsp + 60], r10d # 4-byte Spill
	mov	dword ptr [rsp + 212], edx # 4-byte Spill
	mov	dword ptr [rsp + 216], esi # 4-byte Spill
	mov	edx, dword ptr [rdi + 24]
	mov	dword ptr [rsp + 196], edx # 4-byte Spill
	movsxd	r10, edx
	vmovsd	xmm6, qword ptr [rsp + 8*r10 + 128] # xmm6 = mem[0],zero
	vucomisd	xmm6, qword ptr [rsp + 8*r10 + 64]
	jne	.LBB11_131
	jp	.LBB11_131
# BB#7:
	mov	dword ptr [rsp + 204], ebx # 4-byte Spill
	mov	dword ptr [rsp + 208], r11d # 4-byte Spill
	mov	esi, dword ptr [rdi + 28]
	movsxd	r11, esi
	vmovsd	xmm6, qword ptr [rsp + 8*r11 + 128] # xmm6 = mem[0],zero
	vucomisd	xmm6, qword ptr [rsp + 8*r11 + 64]
	mov	rdx, r15
	jne	.LBB11_132
	jp	.LBB11_132
# BB#8:
	movabs	rbx, count
	mov	r15d, dword ptr [rbx]
	lea	eax, [r15 + 1]
	mov	dword ptr [rbx], eax
	vmovaps	ymm0, ymmword ptr [rcx]
	vmovaps	ymm1, ymmword ptr [rcx + 32]
	vmovaps	ymmword ptr [rsp + 160], ymm1
	vmovaps	ymmword ptr [rsp + 128], ymm0
	vmovaps	ymm0, ymmword ptr [rcx + 64]
	vmovaps	ymm1, ymmword ptr [rcx + 96]
	vmovaps	ymmword ptr [rsp + 320], ymm1
	vmovaps	ymmword ptr [rsp + 288], ymm0
	vmovaps	ymm0, ymmword ptr [rcx]
	vmovaps	ymm1, ymmword ptr [rcx + 32]
	vmovaps	ymmword ptr [rsp + 96], ymm1
	vmovaps	ymmword ptr [rsp + 64], ymm0
	vmovaps	ymm0, ymmword ptr [rcx + 64]
	vmovaps	ymm1, ymmword ptr [rcx + 96]
	vmovaps	ymmword ptr [rsp + 384], ymm1
	vmovaps	ymmword ptr [rsp + 352], ymm0
	vmovapd	ymm0, ymmword ptr [rsp + 64]
	vmovapd	ymm1, ymmword ptr [rsp + 96]
	vmulpd	ymm0, ymm0, ymmword ptr [rsp + 352]
	vmulpd	ymm1, ymm1, ymmword ptr [rsp + 384]
	vmovapd	ymmword ptr [rsp + 224], ymm0
	vmovapd	ymmword ptr [rsp + 256], ymm1
	vmovsd	xmm0, qword ptr [rsp + 8*rdx + 128] # xmm0 = mem[0],zero
	vmulsd	xmm6, xmm0, qword ptr [rsp + 8*rdx + 288]
	vucomisd	xmm6, qword ptr [rsp + 8*rdx + 224]
	jne	.LBB11_134
	jp	.LBB11_134
# BB#9:
	vmovsd	xmm0, qword ptr [rsp + 8*r13 + 128] # xmm0 = mem[0],zero
	vmulsd	xmm6, xmm0, qword ptr [rsp + 8*r13 + 288]
	vucomisd	xmm6, qword ptr [rsp + 8*r13 + 224]
	jne	.LBB11_135
	jp	.LBB11_135
# BB#10:
	vmovsd	xmm0, qword ptr [rsp + 8*r12 + 128] # xmm0 = mem[0],zero
	vmulsd	xmm6, xmm0, qword ptr [rsp + 8*r12 + 288]
	vucomisd	xmm6, qword ptr [rsp + 8*r12 + 224]
	jne	.LBB11_136
	jp	.LBB11_136
# BB#11:
	vmovsd	xmm0, qword ptr [rsp + 8*r14 + 128] # xmm0 = mem[0],zero
	vmulsd	xmm6, xmm0, qword ptr [rsp + 8*r14 + 288]
	vucomisd	xmm6, qword ptr [rsp + 8*r14 + 224]
	jne	.LBB11_137
	jp	.LBB11_137
# BB#12:
	vmovsd	xmm0, qword ptr [rsp + 8*r8 + 128] # xmm0 = mem[0],zero
	vmulsd	xmm6, xmm0, qword ptr [rsp + 8*r8 + 288]
	vucomisd	xmm6, qword ptr [rsp + 8*r8 + 224]
	jne	.LBB11_138
	jp	.LBB11_138
# BB#13:
	vmovsd	xmm0, qword ptr [rsp + 8*r9 + 128] # xmm0 = mem[0],zero
	vmulsd	xmm6, xmm0, qword ptr [rsp + 8*r9 + 288]
	vucomisd	xmm6, qword ptr [rsp + 8*r9 + 224]
	jne	.LBB11_139
	jp	.LBB11_139
# BB#14:
	vmovsd	xmm0, qword ptr [rsp + 8*r10 + 128] # xmm0 = mem[0],zero
	vmulsd	xmm6, xmm0, qword ptr [rsp + 8*r10 + 288]
	vucomisd	xmm6, qword ptr [rsp + 8*r10 + 224]
	jne	.LBB11_140
	jp	.LBB11_140
# BB#15:
	mov	dword ptr [rsp + 200], esi # 4-byte Spill
	vmovsd	xmm0, qword ptr [rsp + 8*r11 + 128] # xmm0 = mem[0],zero
	vmulsd	xmm6, xmm0, qword ptr [rsp + 8*r11 + 288]
	vucomisd	xmm6, qword ptr [rsp + 8*r11 + 224]
	jne	.LBB11_141
	jp	.LBB11_141
# BB#16:
	lea	rdi, [rcx + 64]
	lea	eax, [r15 + 2]
	movabs	rbx, count
	mov	dword ptr [rbx], eax
	mov	rsi, qword ptr [rcx]
	vmovaps	ymm0, ymmword ptr [rdi]
	vmovaps	ymm1, ymmword ptr [rdi + 32]
	vmovaps	ymmword ptr [rsp + 160], ymm1
	vmovaps	ymmword ptr [rsp + 128], ymm0
	mov	qword ptr [rsp + 352], rsi
	vmovaps	ymm0, ymmword ptr [rdi]
	vmovaps	ymm1, ymmword ptr [rdi + 32]
	vmovaps	ymmword ptr [rsp + 320], ymm1
	vmovaps	ymmword ptr [rsp + 288], ymm0
	vmovq	xmm2, rsi
	vpbroadcastq	ymm3, xmm2
	vmulpd	ymm0, ymm3, ymmword ptr [rsp + 288]
	vmulpd	ymm1, ymm3, ymmword ptr [rsp + 320]
	vmovapd	ymmword ptr [rsp + 64], ymm0
	vmovapd	ymmword ptr [rsp + 96], ymm1
	vmulsd	xmm6, xmm2, qword ptr [rsp + 8*rdx + 128]
	vucomisd	xmm6, qword ptr [rsp + 8*rdx + 64]
	jne	.LBB11_143
	jp	.LBB11_143
# BB#17:
	vmulsd	xmm6, xmm2, qword ptr [rsp + 8*r13 + 128]
	vucomisd	xmm6, qword ptr [rsp + 8*r13 + 64]
	jne	.LBB11_144
	jp	.LBB11_144
# BB#18:
	vmulsd	xmm6, xmm2, qword ptr [rsp + 8*r12 + 128]
	vucomisd	xmm6, qword ptr [rsp + 8*r12 + 64]
	jne	.LBB11_145
	jp	.LBB11_145
# BB#19:
	vmulsd	xmm6, xmm2, qword ptr [rsp + 8*r14 + 128]
	vucomisd	xmm6, qword ptr [rsp + 8*r14 + 64]
	jne	.LBB11_146
	jp	.LBB11_146
# BB#20:
	vmulsd	xmm6, xmm2, qword ptr [rsp + 8*r8 + 128]
	vucomisd	xmm6, qword ptr [rsp + 8*r8 + 64]
	jne	.LBB11_147
	jp	.LBB11_147
# BB#21:
	vmulsd	xmm6, xmm2, qword ptr [rsp + 8*r9 + 128]
	vucomisd	xmm6, qword ptr [rsp + 8*r9 + 64]
	jne	.LBB11_148
	jp	.LBB11_148
# BB#22:
	vmulsd	xmm6, xmm2, qword ptr [rsp + 8*r10 + 128]
	vucomisd	xmm6, qword ptr [rsp + 8*r10 + 64]
	jne	.LBB11_149
	jp	.LBB11_149
# BB#23:
	vmulsd	xmm6, xmm2, qword ptr [rsp + 8*r11 + 128]
	vucomisd	xmm6, qword ptr [rsp + 8*r11 + 64]
	jne	.LBB11_150
	jp	.LBB11_150
# BB#24:
	lea	eax, [r15 + 3]
	movabs	rbx, count
	mov	dword ptr [rbx], eax
	vmovaps	ymm0, ymmword ptr [rcx]
	vmovaps	ymm1, ymmword ptr [rcx + 32]
	vmovaps	ymmword ptr [rsp + 160], ymm1
	vmovaps	ymmword ptr [rsp + 128], ymm0
	mov	rax, qword ptr [rcx + 64]
	vmovaps	ymm0, ymmword ptr [rcx]
	vmovaps	ymm1, ymmword ptr [rcx + 32]
	vmovaps	ymmword ptr [rsp + 320], ymm1
	vmovaps	ymmword ptr [rsp + 288], ymm0
	mov	qword ptr [rsp + 352], rax
	vmovq	xmm0, rax
	vpbroadcastq	ymm1, xmm0
	vmulpd	ymm4, ymm1, ymmword ptr [rsp + 288]
	vmulpd	ymm5, ymm1, ymmword ptr [rsp + 320]
	vmovapd	ymmword ptr [rsp + 64], ymm4
	vmovapd	ymmword ptr [rsp + 96], ymm5
	vmulsd	xmm6, xmm0, qword ptr [rsp + 8*rdx + 128]
	vucomisd	xmm6, qword ptr [rsp + 8*rdx + 64]
	jne	.LBB11_154
	jp	.LBB11_154
# BB#25:
	vmulsd	xmm6, xmm0, qword ptr [rsp + 8*r13 + 128]
	vucomisd	xmm6, qword ptr [rsp + 8*r13 + 64]
	jne	.LBB11_155
	jp	.LBB11_155
# BB#26:
	vmulsd	xmm6, xmm0, qword ptr [rsp + 8*r12 + 128]
	vucomisd	xmm6, qword ptr [rsp + 8*r12 + 64]
	jne	.LBB11_156
	jp	.LBB11_156
# BB#27:
	vmulsd	xmm6, xmm0, qword ptr [rsp + 8*r14 + 128]
	vucomisd	xmm6, qword ptr [rsp + 8*r14 + 64]
	jne	.LBB11_157
	jp	.LBB11_157
# BB#28:
	vmulsd	xmm6, xmm0, qword ptr [rsp + 8*r8 + 128]
	vucomisd	xmm6, qword ptr [rsp + 8*r8 + 64]
	jne	.LBB11_158
	jp	.LBB11_158
# BB#29:
	vmulsd	xmm6, xmm0, qword ptr [rsp + 8*r9 + 128]
	vucomisd	xmm6, qword ptr [rsp + 8*r9 + 64]
	jne	.LBB11_159
	jp	.LBB11_159
# BB#30:
	vmulsd	xmm6, xmm0, qword ptr [rsp + 8*r10 + 128]
	vucomisd	xmm6, qword ptr [rsp + 8*r10 + 64]
	jne	.LBB11_160
	jp	.LBB11_160
# BB#31:
	mov	qword ptr [rsp + 504], rax # 8-byte Spill
	vmulsd	xmm6, xmm0, qword ptr [rsp + 8*r11 + 128]
	vucomisd	xmm6, qword ptr [rsp + 8*r11 + 64]
	jne	.LBB11_161
	jp	.LBB11_161
# BB#32:
	lea	eax, [r15 + 4]
	movabs	rbx, count
	mov	dword ptr [rbx], eax
	vmovaps	ymm4, ymmword ptr [rcx]
	vmovaps	ymm5, ymmword ptr [rcx + 32]
	vmovaps	ymmword ptr [rsp + 160], ymm5
	vmovaps	ymmword ptr [rsp + 128], ymm4
	vmovaps	ymm4, ymmword ptr [rdi]
	vmovaps	ymm5, ymmword ptr [rdi + 32]
	vmovaps	ymmword ptr [rsp + 320], ymm5
	vmovaps	ymmword ptr [rsp + 288], ymm4
	vmovaps	ymm4, ymmword ptr [rcx]
	vmovaps	ymm5, ymmword ptr [rcx + 32]
	vmovaps	ymmword ptr [rsp + 96], ymm5
	vmovaps	ymmword ptr [rsp + 64], ymm4
	vmovaps	ymm4, ymmword ptr [rdi]
	vmovaps	ymm5, ymmword ptr [rdi + 32]
	vmovaps	ymmword ptr [rsp + 384], ymm5
	vmovaps	ymmword ptr [rsp + 352], ymm4
	vmovapd	ymm4, ymmword ptr [rsp + 64]
	vmovapd	ymm5, ymmword ptr [rsp + 96]
	vaddpd	ymm4, ymm4, ymmword ptr [rsp + 352]
	vaddpd	ymm5, ymm5, ymmword ptr [rsp + 384]
	vmovapd	ymmword ptr [rsp + 224], ymm4
	vmovapd	ymmword ptr [rsp + 256], ymm5
	vmovsd	xmm4, qword ptr [rsp + 8*rdx + 128] # xmm4 = mem[0],zero
	vaddsd	xmm6, xmm4, qword ptr [rsp + 8*rdx + 288]
	vucomisd	xmm6, qword ptr [rsp + 8*rdx + 224]
	jne	.LBB11_164
	jp	.LBB11_164
# BB#33:
	vmovsd	xmm4, qword ptr [rsp + 8*r13 + 128] # xmm4 = mem[0],zero
	vaddsd	xmm6, xmm4, qword ptr [rsp + 8*r13 + 288]
	vucomisd	xmm6, qword ptr [rsp + 8*r13 + 224]
	jne	.LBB11_165
	jp	.LBB11_165
# BB#34:
	vmovsd	xmm4, qword ptr [rsp + 8*r12 + 128] # xmm4 = mem[0],zero
	vaddsd	xmm6, xmm4, qword ptr [rsp + 8*r12 + 288]
	vucomisd	xmm6, qword ptr [rsp + 8*r12 + 224]
	jne	.LBB11_166
	jp	.LBB11_166
# BB#35:
	vmovsd	xmm4, qword ptr [rsp + 8*r14 + 128] # xmm4 = mem[0],zero
	vaddsd	xmm6, xmm4, qword ptr [rsp + 8*r14 + 288]
	vucomisd	xmm6, qword ptr [rsp + 8*r14 + 224]
	jne	.LBB11_167
	jp	.LBB11_167
# BB#36:
	vmovsd	xmm4, qword ptr [rsp + 8*r8 + 128] # xmm4 = mem[0],zero
	vaddsd	xmm6, xmm4, qword ptr [rsp + 8*r8 + 288]
	vucomisd	xmm6, qword ptr [rsp + 8*r8 + 224]
	jne	.LBB11_168
	jp	.LBB11_168
# BB#37:
	vmovsd	xmm4, qword ptr [rsp + 8*r9 + 128] # xmm4 = mem[0],zero
	vaddsd	xmm6, xmm4, qword ptr [rsp + 8*r9 + 288]
	vucomisd	xmm6, qword ptr [rsp + 8*r9 + 224]
	jne	.LBB11_169
	jp	.LBB11_169
# BB#38:
	vmovsd	xmm4, qword ptr [rsp + 8*r10 + 128] # xmm4 = mem[0],zero
	vaddsd	xmm6, xmm4, qword ptr [rsp + 8*r10 + 288]
	vucomisd	xmm6, qword ptr [rsp + 8*r10 + 224]
	jne	.LBB11_170
	jp	.LBB11_170
# BB#39:
	vmovsd	xmm4, qword ptr [rsp + 8*r11 + 128] # xmm4 = mem[0],zero
	vaddsd	xmm6, xmm4, qword ptr [rsp + 8*r11 + 288]
	vucomisd	xmm6, qword ptr [rsp + 8*r11 + 224]
	jne	.LBB11_171
	jp	.LBB11_171
# BB#40:
	lea	eax, [r15 + 5]
	movabs	rbx, count
	mov	dword ptr [rbx], eax
	vmovaps	ymm4, ymmword ptr [rdi]
	vmovaps	ymm5, ymmword ptr [rdi + 32]
	vmovaps	ymmword ptr [rsp + 160], ymm5
	vmovaps	ymmword ptr [rsp + 128], ymm4
	mov	qword ptr [rsp + 352], rsi
	vmovaps	ymm4, ymmword ptr [rdi]
	vmovapd	ymm5, ymmword ptr [rdi + 32]
	vmovapd	ymmword ptr [rsp + 320], ymm5
	vmovaps	ymmword ptr [rsp + 288], ymm4
	vaddpd	ymm4, ymm3, ymmword ptr [rsp + 288]
	vaddpd	ymm3, ymm3, ymmword ptr [rsp + 320]
	vmovapd	ymmword ptr [rsp + 64], ymm4
	vmovapd	ymmword ptr [rsp + 96], ymm3
	vaddsd	xmm6, xmm2, qword ptr [rsp + 8*rdx + 128]
	vucomisd	xmm6, qword ptr [rsp + 8*rdx + 64]
	jne	.LBB11_174
	jp	.LBB11_174
# BB#41:
	vaddsd	xmm6, xmm2, qword ptr [rsp + 8*r13 + 128]
	vucomisd	xmm6, qword ptr [rsp + 8*r13 + 64]
	jne	.LBB11_175
	jp	.LBB11_175
# BB#42:
	vaddsd	xmm6, xmm2, qword ptr [rsp + 8*r12 + 128]
	vucomisd	xmm6, qword ptr [rsp + 8*r12 + 64]
	jne	.LBB11_176
	jp	.LBB11_176
# BB#43:
	vaddsd	xmm6, xmm2, qword ptr [rsp + 8*r14 + 128]
	vucomisd	xmm6, qword ptr [rsp + 8*r14 + 64]
	jne	.LBB11_177
	jp	.LBB11_177
# BB#44:
	vaddsd	xmm6, xmm2, qword ptr [rsp + 8*r8 + 128]
	vucomisd	xmm6, qword ptr [rsp + 8*r8 + 64]
	jne	.LBB11_178
	jp	.LBB11_178
# BB#45:
	vaddsd	xmm6, xmm2, qword ptr [rsp + 8*r9 + 128]
	vucomisd	xmm6, qword ptr [rsp + 8*r9 + 64]
	jne	.LBB11_179
	jp	.LBB11_179
# BB#46:
	vaddsd	xmm6, xmm2, qword ptr [rsp + 8*r10 + 128]
	vucomisd	xmm6, qword ptr [rsp + 8*r10 + 64]
	jne	.LBB11_180
	jp	.LBB11_180
# BB#47:
	vaddsd	xmm6, xmm2, qword ptr [rsp + 8*r11 + 128]
	vucomisd	xmm6, qword ptr [rsp + 8*r11 + 64]
	jne	.LBB11_181
	jp	.LBB11_181
# BB#48:
	mov	rsi, r15
	lea	eax, [r15 + 6]
	movabs	r15, count
	mov	dword ptr [r15], eax
	vmovaps	ymm2, ymmword ptr [rcx]
	vmovaps	ymm3, ymmword ptr [rcx + 32]
	vmovaps	ymmword ptr [rsp + 160], ymm3
	vmovaps	ymmword ptr [rsp + 128], ymm2
	vmovaps	ymm2, ymmword ptr [rcx]
	vmovaps	ymm3, ymmword ptr [rcx + 32]
	vmovaps	ymmword ptr [rsp + 320], ymm3
	vmovaps	ymmword ptr [rsp + 288], ymm2
	mov	rbx, qword ptr [rsp + 504] # 8-byte Reload
	mov	qword ptr [rsp + 352], rbx
	vaddpd	ymm2, ymm1, ymmword ptr [rsp + 288]
	vaddpd	ymm3, ymm1, ymmword ptr [rsp + 320]
	vmovapd	ymmword ptr [rsp + 64], ymm2
	vmovapd	ymmword ptr [rsp + 96], ymm3
	vaddsd	xmm6, xmm0, qword ptr [rsp + 8*rdx + 128]
	vucomisd	xmm6, qword ptr [rsp + 8*rdx + 64]
	jne	.LBB11_184
	jp	.LBB11_184
# BB#49:
	vaddsd	xmm6, xmm0, qword ptr [rsp + 8*r13 + 128]
	vucomisd	xmm6, qword ptr [rsp + 8*r13 + 64]
	jne	.LBB11_185
	jp	.LBB11_185
# BB#50:
	vaddsd	xmm6, xmm0, qword ptr [rsp + 8*r12 + 128]
	vucomisd	xmm6, qword ptr [rsp + 8*r12 + 64]
	mov	rax, rdi
	jne	.LBB11_186
	jp	.LBB11_186
# BB#51:
	vaddsd	xmm6, xmm0, qword ptr [rsp + 8*r14 + 128]
	vucomisd	xmm6, qword ptr [rsp + 8*r14 + 64]
	jne	.LBB11_187
	jp	.LBB11_187
# BB#52:
	vaddsd	xmm6, xmm0, qword ptr [rsp + 8*r8 + 128]
	vucomisd	xmm6, qword ptr [rsp + 8*r8 + 64]
	jne	.LBB11_188
	jp	.LBB11_188
# BB#53:
	vaddsd	xmm6, xmm0, qword ptr [rsp + 8*r9 + 128]
	vucomisd	xmm6, qword ptr [rsp + 8*r9 + 64]
	jne	.LBB11_189
	jp	.LBB11_189
# BB#54:
	vaddsd	xmm6, xmm0, qword ptr [rsp + 8*r10 + 128]
	vucomisd	xmm6, qword ptr [rsp + 8*r10 + 64]
	jne	.LBB11_190
	jp	.LBB11_190
# BB#55:
	vaddsd	xmm6, xmm0, qword ptr [rsp + 8*r11 + 128]
	vucomisd	xmm6, qword ptr [rsp + 8*r11 + 64]
	jne	.LBB11_191
	jp	.LBB11_191
# BB#56:
	add	esi, 7
	mov	dword ptr [r15], esi
	vmovaps	ymm2, ymmword ptr [rcx]
	vmovaps	ymm3, ymmword ptr [rcx + 32]
	vmovaps	ymmword ptr [rsp + 160], ymm3
	vmovaps	ymmword ptr [rsp + 128], ymm2
	mov	rdx, qword ptr [rcx + 128]
	vmovaps	ymm2, ymmword ptr [rcx]
	vmovaps	ymm3, ymmword ptr [rcx + 32]
	vmovaps	ymmword ptr [rsp + 320], ymm3
	vmovaps	ymmword ptr [rsp + 288], ymm2
	mov	qword ptr [rsp + 352], rbx
	mov	qword ptr [rsp + 224], rdx
	#APP
	# TEST3 a * b + c -- P a = u1.p; S b = u2.d[0]; S c = u3.d[0];
	#NO_APP
	vmovq	xmm2, rdx
	vpbroadcastq	ymm3, xmm2
	vmovapd	ymm4, ymmword ptr [rsp + 288]
	vfmadd132pd	ymm4, ymm3, ymm1
	vfmadd132pd	ymm1, ymm3, ymmword ptr [rsp + 320]
	vmovapd	ymmword ptr [rsp + 64], ymm4
	vmovapd	ymmword ptr [rsp + 96], ymm1
	movabs	rbx, _ZN6layoutI1XE1iE
	movsxd	rsi, dword ptr [rbx]
	vmulsd	xmm1, xmm0, qword ptr [rsp + 8*rsi + 128]
	vaddsd	xmm6, xmm1, xmm2
	vucomisd	xmm6, qword ptr [rsp + 8*rsi + 64]
	jne	.LBB11_113
	jp	.LBB11_113
# BB#57:
	movsxd	rsi, dword ptr [rbx + 4]
	vmulsd	xmm1, xmm0, qword ptr [rsp + 8*rsi + 128]
	vaddsd	xmm6, xmm1, xmm2
	vucomisd	xmm6, qword ptr [rsp + 8*rsi + 64]
	jne	.LBB11_113
	jp	.LBB11_113
# BB#58:
	movsxd	rsi, dword ptr [rbx + 8]
	vmulsd	xmm1, xmm0, qword ptr [rsp + 8*rsi + 128]
	vaddsd	xmm6, xmm1, xmm2
	vucomisd	xmm6, qword ptr [rsp + 8*rsi + 64]
	jne	.LBB11_113
	jp	.LBB11_113
# BB#59:
	movsxd	rsi, dword ptr [rbx + 12]
	vmulsd	xmm1, xmm0, qword ptr [rsp + 8*rsi + 128]
	vaddsd	xmm6, xmm1, xmm2
	vucomisd	xmm6, qword ptr [rsp + 8*rsi + 64]
	jne	.LBB11_113
	jp	.LBB11_113
# BB#60:
	movsxd	rsi, dword ptr [rbx + 16]
	vmulsd	xmm1, xmm0, qword ptr [rsp + 8*rsi + 128]
	vaddsd	xmm6, xmm1, xmm2
	vucomisd	xmm6, qword ptr [rsp + 8*rsi + 64]
	jne	.LBB11_113
	jp	.LBB11_113
# BB#61:
	movsxd	rsi, dword ptr [rbx + 20]
	vmulsd	xmm1, xmm0, qword ptr [rsp + 8*rsi + 128]
	vaddsd	xmm6, xmm1, xmm2
	vucomisd	xmm6, qword ptr [rsp + 8*rsi + 64]
	jne	.LBB11_113
	jp	.LBB11_113
# BB#62:
	movsxd	rsi, dword ptr [rbx + 24]
	vmulsd	xmm1, xmm0, qword ptr [rsp + 8*rsi + 128]
	vaddsd	xmm6, xmm1, xmm2
	vucomisd	xmm6, qword ptr [rsp + 8*rsi + 64]
	jne	.LBB11_113
	jp	.LBB11_113
# BB#63:
	movsxd	rsi, dword ptr [rbx + 28]
	vmulsd	xmm0, xmm0, qword ptr [rsp + 8*rsi + 128]
	vaddsd	xmm6, xmm0, xmm2
	vucomisd	xmm6, qword ptr [rsp + 8*rsi + 64]
	jne	.LBB11_113
	jp	.LBB11_113
# BB#64:
	inc	dword ptr [r15]
	mov	rdx, qword ptr [rcx]
	vmovaps	ymm0, ymmword ptr [rax]
	vmovaps	ymm1, ymmword ptr [rax + 32]
	vmovaps	ymmword ptr [rsp + 160], ymm1
	vmovaps	ymmword ptr [rsp + 128], ymm0
	mov	rdi, qword ptr [rcx + 128]
	mov	qword ptr [rsp + 352], rdx
	vmovaps	ymm0, ymmword ptr [rax]
	vmovaps	ymm1, ymmword ptr [rax + 32]
	vmovaps	ymmword ptr [rsp + 320], ymm1
	vmovaps	ymmword ptr [rsp + 288], ymm0
	mov	qword ptr [rsp + 224], rdi
	#APP
	# TEST3 a * b + c -- S a = u1.d[0]; P b = u2.p; S c = u3.d[0];
	#NO_APP
	vmovq	xmm0, rdx
	vpbroadcastq	ymm2, xmm0
	vmovq	xmm1, rdi
	vpbroadcastq	ymm3, xmm1
	vmovapd	ymm4, ymmword ptr [rsp + 288]
	vfmadd213pd	ymm4, ymm2, ymm3
	vfmadd231pd	ymm3, ymm2, ymmword ptr [rsp + 320]
	vmovapd	ymmword ptr [rsp + 64], ymm4
	vmovapd	ymmword ptr [rsp + 96], ymm3
	movsxd	rsi, dword ptr [rbx]
	vmulsd	xmm2, xmm0, qword ptr [rsp + 8*rsi + 128]
	vaddsd	xmm6, xmm2, xmm1
	vucomisd	xmm6, qword ptr [rsp + 8*rsi + 64]
	jne	.LBB11_114
	jp	.LBB11_114
# BB#65:
	movsxd	rsi, dword ptr [rbx + 4]
	vmulsd	xmm2, xmm0, qword ptr [rsp + 8*rsi + 128]
	vaddsd	xmm6, xmm2, xmm1
	vucomisd	xmm6, qword ptr [rsp + 8*rsi + 64]
	jne	.LBB11_114
	jp	.LBB11_114
# BB#66:
	movsxd	rsi, dword ptr [rbx + 8]
	vmulsd	xmm2, xmm0, qword ptr [rsp + 8*rsi + 128]
	vaddsd	xmm6, xmm2, xmm1
	vucomisd	xmm6, qword ptr [rsp + 8*rsi + 64]
	jne	.LBB11_114
	jp	.LBB11_114
# BB#67:
	movsxd	rsi, dword ptr [rbx + 12]
	vmulsd	xmm2, xmm0, qword ptr [rsp + 8*rsi + 128]
	vaddsd	xmm6, xmm2, xmm1
	vucomisd	xmm6, qword ptr [rsp + 8*rsi + 64]
	jne	.LBB11_114
	jp	.LBB11_114
# BB#68:
	movsxd	rsi, dword ptr [rbx + 16]
	vmulsd	xmm2, xmm0, qword ptr [rsp + 8*rsi + 128]
	vaddsd	xmm6, xmm2, xmm1
	vucomisd	xmm6, qword ptr [rsp + 8*rsi + 64]
	jne	.LBB11_114
	jp	.LBB11_114
# BB#69:
	movsxd	rsi, dword ptr [rbx + 20]
	vmulsd	xmm2, xmm0, qword ptr [rsp + 8*rsi + 128]
	vaddsd	xmm6, xmm2, xmm1
	vucomisd	xmm6, qword ptr [rsp + 8*rsi + 64]
	jne	.LBB11_114
	jp	.LBB11_114
# BB#70:
	movsxd	rsi, dword ptr [rbx + 24]
	vmulsd	xmm2, xmm0, qword ptr [rsp + 8*rsi + 128]
	vaddsd	xmm6, xmm2, xmm1
	vucomisd	xmm6, qword ptr [rsp + 8*rsi + 64]
	jne	.LBB11_114
	jp	.LBB11_114
# BB#71:
	movsxd	rsi, dword ptr [rbx + 28]
	vmulsd	xmm0, xmm0, qword ptr [rsp + 8*rsi + 128]
	vaddsd	xmm6, xmm0, xmm1
	vucomisd	xmm6, qword ptr [rsp + 8*rsi + 64]
	jne	.LBB11_114
	jp	.LBB11_114
# BB#72:
	inc	dword ptr [r15]
	vmovaps	ymm0, ymmword ptr [rcx]
	vmovaps	ymm1, ymmword ptr [rcx + 32]
	vmovaps	ymmword ptr [rsp + 160], ymm1
	vmovaps	ymmword ptr [rsp + 128], ymm0
	vmovaps	ymm0, ymmword ptr [rax]
	vmovaps	ymm1, ymmword ptr [rax + 32]
	vmovaps	ymmword ptr [rsp + 320], ymm1
	vmovaps	ymmword ptr [rsp + 288], ymm0
	mov	rdx, qword ptr [rcx + 128]
	vmovaps	ymm0, ymmword ptr [rcx]
	vmovaps	ymm1, ymmword ptr [rcx + 32]
	vmovaps	ymmword ptr [rsp + 96], ymm1
	vmovaps	ymmword ptr [rsp + 64], ymm0
	vmovaps	ymm0, ymmword ptr [rax]
	vmovaps	ymm1, ymmword ptr [rax + 32]
	vmovaps	ymmword ptr [rsp + 384], ymm1
	vmovaps	ymmword ptr [rsp + 352], ymm0
	mov	qword ptr [rsp + 512], rdx
	#APP
	# TEST3 a * b + c -- P a = u1.p; P b = u2.p; S c = u3.d[0];
	#NO_APP
	vmovq	xmm0, rdx
	vpbroadcastq	ymm1, xmm0
	vmovapd	ymm2, ymmword ptr [rsp + 64]
	vmovapd	ymm3, ymmword ptr [rsp + 96]
	vfmadd132pd	ymm2, ymm1, ymmword ptr [rsp + 352]
	vfmadd132pd	ymm3, ymm1, ymmword ptr [rsp + 384]
	vmovapd	ymmword ptr [rsp + 224], ymm2
	vmovapd	ymmword ptr [rsp + 256], ymm3
	movsxd	rsi, dword ptr [rbx]
	vmovsd	xmm1, qword ptr [rsp + 8*rsi + 128] # xmm1 = mem[0],zero
	vmulsd	xmm1, xmm1, qword ptr [rsp + 8*rsi + 288]
	vaddsd	xmm6, xmm1, xmm0
	vucomisd	xmm6, qword ptr [rsp + 8*rsi + 224]
	jne	.LBB11_116
	jp	.LBB11_116
# BB#73:
	movsxd	rsi, dword ptr [rbx + 4]
	vmovsd	xmm1, qword ptr [rsp + 8*rsi + 128] # xmm1 = mem[0],zero
	vmulsd	xmm1, xmm1, qword ptr [rsp + 8*rsi + 288]
	vaddsd	xmm6, xmm1, xmm0
	vucomisd	xmm6, qword ptr [rsp + 8*rsi + 224]
	jne	.LBB11_116
	jp	.LBB11_116
# BB#74:
	movsxd	rsi, dword ptr [rbx + 8]
	vmovsd	xmm1, qword ptr [rsp + 8*rsi + 128] # xmm1 = mem[0],zero
	vmulsd	xmm1, xmm1, qword ptr [rsp + 8*rsi + 288]
	vaddsd	xmm6, xmm1, xmm0
	vucomisd	xmm6, qword ptr [rsp + 8*rsi + 224]
	jne	.LBB11_116
	jp	.LBB11_116
# BB#75:
	movsxd	rsi, dword ptr [rbx + 12]
	vmovsd	xmm1, qword ptr [rsp + 8*rsi + 128] # xmm1 = mem[0],zero
	vmulsd	xmm1, xmm1, qword ptr [rsp + 8*rsi + 288]
	vaddsd	xmm6, xmm1, xmm0
	vucomisd	xmm6, qword ptr [rsp + 8*rsi + 224]
	jne	.LBB11_116
	jp	.LBB11_116
# BB#76:
	movsxd	rsi, dword ptr [rbx + 16]
	vmovsd	xmm1, qword ptr [rsp + 8*rsi + 128] # xmm1 = mem[0],zero
	vmulsd	xmm1, xmm1, qword ptr [rsp + 8*rsi + 288]
	vaddsd	xmm6, xmm1, xmm0
	vucomisd	xmm6, qword ptr [rsp + 8*rsi + 224]
	jne	.LBB11_116
	jp	.LBB11_116
# BB#77:
	movsxd	rsi, dword ptr [rbx + 20]
	vmovsd	xmm1, qword ptr [rsp + 8*rsi + 128] # xmm1 = mem[0],zero
	vmulsd	xmm1, xmm1, qword ptr [rsp + 8*rsi + 288]
	vaddsd	xmm6, xmm1, xmm0
	vucomisd	xmm6, qword ptr [rsp + 8*rsi + 224]
	jne	.LBB11_116
	jp	.LBB11_116
# BB#78:
	movsxd	rsi, dword ptr [rbx + 24]
	vmovsd	xmm1, qword ptr [rsp + 8*rsi + 128] # xmm1 = mem[0],zero
	vmulsd	xmm1, xmm1, qword ptr [rsp + 8*rsi + 288]
	vaddsd	xmm6, xmm1, xmm0
	vucomisd	xmm6, qword ptr [rsp + 8*rsi + 224]
	jne	.LBB11_116
	jp	.LBB11_116
# BB#79:
	movsxd	rsi, dword ptr [rbx + 28]
	vmovsd	xmm1, qword ptr [rsp + 8*rsi + 128] # xmm1 = mem[0],zero
	vmulsd	xmm1, xmm1, qword ptr [rsp + 8*rsi + 288]
	vaddsd	xmm6, xmm1, xmm0
	vucomisd	xmm6, qword ptr [rsp + 8*rsi + 224]
	jne	.LBB11_116
	jp	.LBB11_116
# BB#80:
	inc	dword ptr [r15]
	mov	rdx, qword ptr [rcx]
	mov	rdi, qword ptr [rcx + 64]
	vmovaps	ymm0, ymmword ptr [rcx + 128]
	vmovaps	ymm1, ymmword ptr [rcx + 160]
	vmovaps	ymmword ptr [rsp + 160], ymm1
	vmovaps	ymmword ptr [rsp + 128], ymm0
	mov	qword ptr [rsp + 352], rdx
	mov	qword ptr [rsp + 224], rdi
	vmovaps	ymm0, ymmword ptr [rcx + 128]
	vmovaps	ymm1, ymmword ptr [rcx + 160]
	vmovaps	ymmword ptr [rsp + 320], ymm1
	vmovaps	ymmword ptr [rsp + 288], ymm0
	#APP
	# TEST3 a * b + c -- S a = u1.d[0]; S b = u2.d[0]; P c = u3.p;
	#NO_APP
	vmovq	xmm0, rdx
	vmovq	xmm1, rdi
	vmulsd	xmm0, xmm0, xmm1
	vbroadcastsd	ymm1, xmm0
	vaddpd	ymm2, ymm1, ymmword ptr [rsp + 288]
	vaddpd	ymm1, ymm1, ymmword ptr [rsp + 320]
	vmovapd	ymmword ptr [rsp + 64], ymm2
	vmovapd	ymmword ptr [rsp + 96], ymm1
	movsxd	rsi, dword ptr [rbx]
	vaddsd	xmm6, xmm0, qword ptr [rsp + 8*rsi + 128]
	vucomisd	xmm6, qword ptr [rsp + 8*rsi + 64]
	jne	.LBB11_117
	jp	.LBB11_117
# BB#81:
	movsxd	rsi, dword ptr [rbx + 4]
	vaddsd	xmm6, xmm0, qword ptr [rsp + 8*rsi + 128]
	vucomisd	xmm6, qword ptr [rsp + 8*rsi + 64]
	jne	.LBB11_117
	jp	.LBB11_117
# BB#82:
	movsxd	rsi, dword ptr [rbx + 8]
	vaddsd	xmm6, xmm0, qword ptr [rsp + 8*rsi + 128]
	vucomisd	xmm6, qword ptr [rsp + 8*rsi + 64]
	jne	.LBB11_117
	jp	.LBB11_117
# BB#83:
	movsxd	rsi, dword ptr [rbx + 12]
	vaddsd	xmm6, xmm0, qword ptr [rsp + 8*rsi + 128]
	vucomisd	xmm6, qword ptr [rsp + 8*rsi + 64]
	jne	.LBB11_117
	jp	.LBB11_117
# BB#84:
	movsxd	rsi, dword ptr [rbx + 16]
	vaddsd	xmm6, xmm0, qword ptr [rsp + 8*rsi + 128]
	vucomisd	xmm6, qword ptr [rsp + 8*rsi + 64]
	jne	.LBB11_117
	jp	.LBB11_117
# BB#85:
	movsxd	rsi, dword ptr [rbx + 20]
	vaddsd	xmm6, xmm0, qword ptr [rsp + 8*rsi + 128]
	vucomisd	xmm6, qword ptr [rsp + 8*rsi + 64]
	jne	.LBB11_117
	jp	.LBB11_117
# BB#86:
	movsxd	rsi, dword ptr [rbx + 24]
	vaddsd	xmm6, xmm0, qword ptr [rsp + 8*rsi + 128]
	vucomisd	xmm6, qword ptr [rsp + 8*rsi + 64]
	jne	.LBB11_117
	jp	.LBB11_117
# BB#87:
	movsxd	rsi, dword ptr [rbx + 28]
	vaddsd	xmm6, xmm0, qword ptr [rsp + 8*rsi + 128]
	vucomisd	xmm6, qword ptr [rsp + 8*rsi + 64]
	jne	.LBB11_117
	jp	.LBB11_117
# BB#88:
	mov	rdx, rcx
	inc	dword ptr [r15]
	sub	rdx, -128
	vmovaps	ymm0, ymmword ptr [rcx]
	vmovaps	ymm1, ymmword ptr [rcx + 32]
	vmovaps	ymmword ptr [rsp + 160], ymm1
	vmovaps	ymmword ptr [rsp + 128], ymm0
	mov	rdi, qword ptr [rcx + 64]
	vmovaps	ymm0, ymmword ptr [rdx]
	vmovaps	ymm1, ymmword ptr [rdx + 32]
	vmovaps	ymmword ptr [rsp + 320], ymm1
	vmovaps	ymmword ptr [rsp + 288], ymm0
	vmovaps	ymm0, ymmword ptr [rcx]
	vmovaps	ymm1, ymmword ptr [rcx + 32]
	vmovaps	ymmword ptr [rsp + 96], ymm1
	vmovaps	ymmword ptr [rsp + 64], ymm0
	mov	qword ptr [rsp + 512], rdi
	vmovaps	ymm0, ymmword ptr [rdx]
	vmovaps	ymm1, ymmword ptr [rdx + 32]
	vmovaps	ymmword ptr [rsp + 384], ymm1
	vmovaps	ymmword ptr [rsp + 352], ymm0
	#APP
	# TEST3 a * b + c -- P a = u1.p; S b = u2.d[0]; P c = u3.p;
	#NO_APP
	vmovq	xmm0, rdi
	vpbroadcastq	ymm1, xmm0
	vmovapd	ymm2, ymmword ptr [rsp + 64]
	vmovapd	ymm3, ymmword ptr [rsp + 96]
	vfmadd213pd	ymm2, ymm1, ymmword ptr [rsp + 352]
	vfmadd213pd	ymm3, ymm1, ymmword ptr [rsp + 384]
	vmovapd	ymmword ptr [rsp + 224], ymm2
	vmovapd	ymmword ptr [rsp + 256], ymm3
	movsxd	rsi, dword ptr [rbx]
	vmulsd	xmm1, xmm0, qword ptr [rsp + 8*rsi + 128]
	vaddsd	xmm6, xmm1, qword ptr [rsp + 8*rsi + 288]
	vucomisd	xmm6, qword ptr [rsp + 8*rsi + 224]
	jne	.LBB11_119
	jp	.LBB11_119
# BB#89:
	movsxd	rsi, dword ptr [rbx + 4]
	vmulsd	xmm1, xmm0, qword ptr [rsp + 8*rsi + 128]
	vaddsd	xmm6, xmm1, qword ptr [rsp + 8*rsi + 288]
	vucomisd	xmm6, qword ptr [rsp + 8*rsi + 224]
	jne	.LBB11_119
	jp	.LBB11_119
# BB#90:
	movsxd	rsi, dword ptr [rbx + 8]
	vmulsd	xmm1, xmm0, qword ptr [rsp + 8*rsi + 128]
	vaddsd	xmm6, xmm1, qword ptr [rsp + 8*rsi + 288]
	vucomisd	xmm6, qword ptr [rsp + 8*rsi + 224]
	jne	.LBB11_119
	jp	.LBB11_119
# BB#91:
	movsxd	rsi, dword ptr [rbx + 12]
	vmulsd	xmm1, xmm0, qword ptr [rsp + 8*rsi + 128]
	vaddsd	xmm6, xmm1, qword ptr [rsp + 8*rsi + 288]
	vucomisd	xmm6, qword ptr [rsp + 8*rsi + 224]
	jne	.LBB11_119
	jp	.LBB11_119
# BB#92:
	movsxd	rsi, dword ptr [rbx + 16]
	vmulsd	xmm1, xmm0, qword ptr [rsp + 8*rsi + 128]
	vaddsd	xmm6, xmm1, qword ptr [rsp + 8*rsi + 288]
	vucomisd	xmm6, qword ptr [rsp + 8*rsi + 224]
	jne	.LBB11_119
	jp	.LBB11_119
# BB#93:
	movsxd	rsi, dword ptr [rbx + 20]
	vmulsd	xmm1, xmm0, qword ptr [rsp + 8*rsi + 128]
	vaddsd	xmm6, xmm1, qword ptr [rsp + 8*rsi + 288]
	vucomisd	xmm6, qword ptr [rsp + 8*rsi + 224]
	jne	.LBB11_119
	jp	.LBB11_119
# BB#94:
	movsxd	rsi, dword ptr [rbx + 24]
	vmulsd	xmm1, xmm0, qword ptr [rsp + 8*rsi + 128]
	vaddsd	xmm6, xmm1, qword ptr [rsp + 8*rsi + 288]
	vucomisd	xmm6, qword ptr [rsp + 8*rsi + 224]
	jne	.LBB11_119
	jp	.LBB11_119
# BB#95:
	movsxd	rsi, dword ptr [rbx + 28]
	vmulsd	xmm0, xmm0, qword ptr [rsp + 8*rsi + 128]
	vaddsd	xmm6, xmm0, qword ptr [rsp + 8*rsi + 288]
	vucomisd	xmm6, qword ptr [rsp + 8*rsi + 224]
	jne	.LBB11_119
	jp	.LBB11_119
# BB#96:
	inc	dword ptr [r15]
	mov	rdi, qword ptr [rcx]
	vmovaps	ymm0, ymmword ptr [rax]
	vmovaps	ymm1, ymmword ptr [rax + 32]
	vmovaps	ymmword ptr [rsp + 160], ymm1
	vmovaps	ymmword ptr [rsp + 128], ymm0
	vmovaps	ymm0, ymmword ptr [rdx]
	vmovaps	ymm1, ymmword ptr [rdx + 32]
	vmovaps	ymmword ptr [rsp + 320], ymm1
	vmovaps	ymmword ptr [rsp + 288], ymm0
	mov	qword ptr [rsp + 512], rdi
	vmovaps	ymm0, ymmword ptr [rax]
	vmovaps	ymm1, ymmword ptr [rax + 32]
	vmovaps	ymmword ptr [rsp + 96], ymm1
	vmovaps	ymmword ptr [rsp + 64], ymm0
	vmovaps	ymm0, ymmword ptr [rdx]
	vmovaps	ymm1, ymmword ptr [rdx + 32]
	vmovaps	ymmword ptr [rsp + 384], ymm1
	vmovaps	ymmword ptr [rsp + 352], ymm0
	#APP
	# TEST3 a * b + c -- S a = u1.d[0]; P b = u2.p; P c = u3.p;
	#NO_APP
	vmovq	xmm0, rdi
	vpbroadcastq	ymm1, xmm0
	vmovapd	ymm2, ymmword ptr [rsp + 64]
	vmovapd	ymm3, ymmword ptr [rsp + 96]
	vfmadd213pd	ymm2, ymm1, ymmword ptr [rsp + 352]
	vfmadd213pd	ymm3, ymm1, ymmword ptr [rsp + 384]
	vmovapd	ymmword ptr [rsp + 224], ymm2
	vmovapd	ymmword ptr [rsp + 256], ymm3
	movsxd	rsi, dword ptr [rbx]
	vmulsd	xmm1, xmm0, qword ptr [rsp + 8*rsi + 128]
	vaddsd	xmm6, xmm1, qword ptr [rsp + 8*rsi + 288]
	vucomisd	xmm6, qword ptr [rsp + 8*rsi + 224]
	jne	.LBB11_120
	jp	.LBB11_120
# BB#97:
	movsxd	rsi, dword ptr [rbx + 4]
	vmulsd	xmm1, xmm0, qword ptr [rsp + 8*rsi + 128]
	vaddsd	xmm6, xmm1, qword ptr [rsp + 8*rsi + 288]
	vucomisd	xmm6, qword ptr [rsp + 8*rsi + 224]
	jne	.LBB11_120
	jp	.LBB11_120
# BB#98:
	movsxd	rsi, dword ptr [rbx + 8]
	vmulsd	xmm1, xmm0, qword ptr [rsp + 8*rsi + 128]
	vaddsd	xmm6, xmm1, qword ptr [rsp + 8*rsi + 288]
	vucomisd	xmm6, qword ptr [rsp + 8*rsi + 224]
	jne	.LBB11_120
	jp	.LBB11_120
# BB#99:
	movsxd	rsi, dword ptr [rbx + 12]
	vmulsd	xmm1, xmm0, qword ptr [rsp + 8*rsi + 128]
	vaddsd	xmm6, xmm1, qword ptr [rsp + 8*rsi + 288]
	vucomisd	xmm6, qword ptr [rsp + 8*rsi + 224]
	jne	.LBB11_120
	jp	.LBB11_120
# BB#100:
	movsxd	rsi, dword ptr [rbx + 16]
	vmulsd	xmm1, xmm0, qword ptr [rsp + 8*rsi + 128]
	vaddsd	xmm6, xmm1, qword ptr [rsp + 8*rsi + 288]
	vucomisd	xmm6, qword ptr [rsp + 8*rsi + 224]
	jne	.LBB11_120
	jp	.LBB11_120
# BB#101:
	movsxd	rsi, dword ptr [rbx + 20]
	vmulsd	xmm1, xmm0, qword ptr [rsp + 8*rsi + 128]
	vaddsd	xmm6, xmm1, qword ptr [rsp + 8*rsi + 288]
	vucomisd	xmm6, qword ptr [rsp + 8*rsi + 224]
	jne	.LBB11_120
	jp	.LBB11_120
# BB#102:
	movsxd	rsi, dword ptr [rbx + 24]
	vmulsd	xmm1, xmm0, qword ptr [rsp + 8*rsi + 128]
	vaddsd	xmm6, xmm1, qword ptr [rsp + 8*rsi + 288]
	vucomisd	xmm6, qword ptr [rsp + 8*rsi + 224]
	jne	.LBB11_120
	jp	.LBB11_120
# BB#103:
	movsxd	rsi, dword ptr [rbx + 28]
	vmulsd	xmm0, xmm0, qword ptr [rsp + 8*rsi + 128]
	vaddsd	xmm6, xmm0, qword ptr [rsp + 8*rsi + 288]
	vucomisd	xmm6, qword ptr [rsp + 8*rsi + 224]
	jne	.LBB11_120
	jp	.LBB11_120
# BB#104:
	inc	dword ptr [r15]
	vmovaps	ymm0, ymmword ptr [rcx]
	vmovaps	ymm1, ymmword ptr [rcx + 32]
	vmovaps	ymmword ptr [rsp + 160], ymm1
	vmovaps	ymmword ptr [rsp + 128], ymm0
	vmovaps	ymm0, ymmword ptr [rax]
	vmovaps	ymm1, ymmword ptr [rax + 32]
	vmovaps	ymmword ptr [rsp + 320], ymm1
	vmovaps	ymmword ptr [rsp + 288], ymm0
	vmovaps	ymm0, ymmword ptr [rdx]
	vmovaps	ymm1, ymmword ptr [rdx + 32]
	vmovaps	ymmword ptr [rsp + 96], ymm1
	vmovaps	ymmword ptr [rsp + 64], ymm0
	vmovaps	ymm0, ymmword ptr [rcx]
	vmovaps	ymm1, ymmword ptr [rcx + 32]
	vmovaps	ymmword ptr [rsp + 384], ymm1
	vmovaps	ymmword ptr [rsp + 352], ymm0
	vmovaps	ymm0, ymmword ptr [rax]
	vmovaps	ymm1, ymmword ptr [rax + 32]
	vmovaps	ymmword ptr [rsp + 256], ymm1
	vmovaps	ymmword ptr [rsp + 224], ymm0
	vmovaps	ymm0, ymmword ptr [rdx]
	vmovaps	ymm1, ymmword ptr [rdx + 32]
	vmovaps	ymmword ptr [rsp + 544], ymm1
	vmovaps	ymmword ptr [rsp + 512], ymm0
	#APP
	# TEST3 a * b + c -- P a = u1.p; P b = u2.p; P c = u3.p;
	#NO_APP
	vmovapd	ymm0, ymmword ptr [rsp + 352]
	vmovapd	ymm1, ymmword ptr [rsp + 384]
	vmovapd	ymm2, ymmword ptr [rsp + 224]
	vmovapd	ymm3, ymmword ptr [rsp + 256]
	vfmadd213pd	ymm2, ymm0, ymmword ptr [rsp + 512]
	vfmadd213pd	ymm3, ymm1, ymmword ptr [rsp + 544]
	vmovapd	ymmword ptr [rsp + 416], ymm2
	vmovapd	ymmword ptr [rsp + 448], ymm3
	movsxd	rsi, dword ptr [rbx]
	vmovsd	xmm0, qword ptr [rsp + 8*rsi + 128] # xmm0 = mem[0],zero
	vmulsd	xmm0, xmm0, qword ptr [rsp + 8*rsi + 288]
	vaddsd	xmm6, xmm0, qword ptr [rsp + 8*rsi + 64]
	vucomisd	xmm6, qword ptr [rsp + 8*rsi + 416]
	jne	.LBB11_123
	jp	.LBB11_123
# BB#105:
	movsxd	rsi, dword ptr [rbx + 4]
	vmovsd	xmm0, qword ptr [rsp + 8*rsi + 128] # xmm0 = mem[0],zero
	vmulsd	xmm0, xmm0, qword ptr [rsp + 8*rsi + 288]
	vaddsd	xmm6, xmm0, qword ptr [rsp + 8*rsi + 64]
	vucomisd	xmm6, qword ptr [rsp + 8*rsi + 416]
	jne	.LBB11_123
	jp	.LBB11_123
# BB#106:
	movsxd	rsi, dword ptr [rbx + 8]
	vmovsd	xmm0, qword ptr [rsp + 8*rsi + 128] # xmm0 = mem[0],zero
	vmulsd	xmm0, xmm0, qword ptr [rsp + 8*rsi + 288]
	vaddsd	xmm6, xmm0, qword ptr [rsp + 8*rsi + 64]
	vucomisd	xmm6, qword ptr [rsp + 8*rsi + 416]
	jne	.LBB11_123
	jp	.LBB11_123
# BB#107:
	movsxd	rsi, dword ptr [rbx + 12]
	vmovsd	xmm0, qword ptr [rsp + 8*rsi + 128] # xmm0 = mem[0],zero
	vmulsd	xmm0, xmm0, qword ptr [rsp + 8*rsi + 288]
	vaddsd	xmm6, xmm0, qword ptr [rsp + 8*rsi + 64]
	vucomisd	xmm6, qword ptr [rsp + 8*rsi + 416]
	jne	.LBB11_123
	jp	.LBB11_123
# BB#108:
	movsxd	rsi, dword ptr [rbx + 16]
	vmovsd	xmm0, qword ptr [rsp + 8*rsi + 128] # xmm0 = mem[0],zero
	vmulsd	xmm0, xmm0, qword ptr [rsp + 8*rsi + 288]
	vaddsd	xmm6, xmm0, qword ptr [rsp + 8*rsi + 64]
	vucomisd	xmm6, qword ptr [rsp + 8*rsi + 416]
	jne	.LBB11_123
	jp	.LBB11_123
# BB#109:
	movsxd	rsi, dword ptr [rbx + 20]
	vmovsd	xmm0, qword ptr [rsp + 8*rsi + 128] # xmm0 = mem[0],zero
	vmulsd	xmm0, xmm0, qword ptr [rsp + 8*rsi + 288]
	vaddsd	xmm6, xmm0, qword ptr [rsp + 8*rsi + 64]
	vucomisd	xmm6, qword ptr [rsp + 8*rsi + 416]
	jne	.LBB11_123
	jp	.LBB11_123
# BB#110:
	movsxd	rsi, dword ptr [rbx + 24]
	vmovsd	xmm0, qword ptr [rsp + 8*rsi + 128] # xmm0 = mem[0],zero
	vmulsd	xmm0, xmm0, qword ptr [rsp + 8*rsi + 288]
	vaddsd	xmm6, xmm0, qword ptr [rsp + 8*rsi + 64]
	vucomisd	xmm6, qword ptr [rsp + 8*rsi + 416]
	jne	.LBB11_123
	jp	.LBB11_123
# BB#111:
	movsxd	rsi, dword ptr [rbx + 28]
	vmovsd	xmm0, qword ptr [rsp + 8*rsi + 128] # xmm0 = mem[0],zero
	vmulsd	xmm0, xmm0, qword ptr [rsp + 8*rsi + 288]
	vaddsd	xmm6, xmm0, qword ptr [rsp + 8*rsi + 64]
	vucomisd	xmm6, qword ptr [rsp + 8*rsi + 416]
	jne	.LBB11_123
	jp	.LBB11_123
# BB#112:
	inc	dword ptr [r15]
	vmovaps	xmm6, xmmword ptr [rbp + 448] # 16-byte Reload
	lea	rsp, [rbp + 472]
	pop	rbx
	pop	rdi
	pop	rsi
	pop	r12
	pop	r13
	pop	r14
	pop	r15
	pop	rbp
	vzeroupper
	ret
.LBB11_113:
	lea	r14, [rsp + 8*rsi + 64]
	movabs	rcx, _ZSt4cerr
	movabs	rdx, .L.str.1
	vzeroupper
	call	_ZStlsISt11char_traitsIcEERSt13basic_ostreamIcT_ES5_PKc
	movabs	rdx, _ZTS1X
	mov	rcx, rax
	call	_ZStlsISt11char_traitsIcEERSt13basic_ostreamIcT_ES5_PKc
	movabs	rdx, .L.str.2
	mov	rcx, rax
	call	_ZStlsISt11char_traitsIcEERSt13basic_ostreamIcT_ES5_PKc
	movabs	rcx, _ZTId
	mov	rdi, qword ptr [rcx + 8]
	lea	rbx, [rdi + 1]
	cmp	byte ptr [rdi], 42
	mov	rdx, rdi
	cmove	rdx, rbx
	mov	rcx, rax
	call	_ZStlsISt11char_traitsIcEERSt13basic_ostreamIcT_ES5_PKc
	movabs	r15, .L.str.10
	mov	rcx, rax
	mov	rdx, r15
	call	_ZStlsISt11char_traitsIcEERSt13basic_ostreamIcT_ES5_PKc
	cmp	byte ptr [rdi], 42
	cmove	rdi, rbx
	mov	rcx, rax
	mov	rdx, rdi
	call	_ZStlsISt11char_traitsIcEERSt13basic_ostreamIcT_ES5_PKc
	mov	rcx, rax
	mov	rdx, r15
	call	_ZStlsISt11char_traitsIcEERSt13basic_ostreamIcT_ES5_PKc
	movabs	rdx, .L.str.3
	mov	rcx, rax
	call	_ZStlsISt11char_traitsIcEERSt13basic_ostreamIcT_ES5_PKc
	lea	rdx, [rsp + 288]
	mov	rcx, rax
	call	_ZlsI1XERSoS1_7printerIT_E
	movabs	rdi, .L.str.4
	mov	rcx, rax
	mov	rdx, rdi
	call	_ZStlsISt11char_traitsIcEERSt13basic_ostreamIcT_ES5_PKc
	movabs	rbx, .L.str.11
	mov	rcx, rax
	mov	rdx, rbx
	call	_ZStlsISt11char_traitsIcEERSt13basic_ostreamIcT_ES5_PKc
	lea	rdx, [rsp + 352]
	mov	rcx, rax
	call	_ZlsIdERSoS0_7printerIT_E
	jmp	.LBB11_115
.LBB11_114:
	lea	r14, [rsp + 8*rsi + 64]
	movabs	rcx, _ZSt4cerr
	movabs	rdx, .L.str.1
	vzeroupper
	call	_ZStlsISt11char_traitsIcEERSt13basic_ostreamIcT_ES5_PKc
	movabs	rcx, _ZTId
	mov	rdi, qword ptr [rcx + 8]
	lea	rbx, [rdi + 1]
	cmp	byte ptr [rdi], 42
	mov	rdx, rdi
	cmove	rdx, rbx
	mov	rcx, rax
	call	_ZStlsISt11char_traitsIcEERSt13basic_ostreamIcT_ES5_PKc
	movabs	rdx, .L.str.2
	mov	rcx, rax
	call	_ZStlsISt11char_traitsIcEERSt13basic_ostreamIcT_ES5_PKc
	movabs	rdx, _ZTS1X
	mov	rcx, rax
	call	_ZStlsISt11char_traitsIcEERSt13basic_ostreamIcT_ES5_PKc
	movabs	r15, .L.str.10
	mov	rcx, rax
	mov	rdx, r15
	call	_ZStlsISt11char_traitsIcEERSt13basic_ostreamIcT_ES5_PKc
	cmp	byte ptr [rdi], 42
	cmove	rdi, rbx
	mov	rcx, rax
	mov	rdx, rdi
	call	_ZStlsISt11char_traitsIcEERSt13basic_ostreamIcT_ES5_PKc
	mov	rcx, rax
	mov	rdx, r15
	call	_ZStlsISt11char_traitsIcEERSt13basic_ostreamIcT_ES5_PKc
	movabs	rdx, .L.str.3
	mov	rcx, rax
	call	_ZStlsISt11char_traitsIcEERSt13basic_ostreamIcT_ES5_PKc
	lea	rdx, [rsp + 352]
	mov	rcx, rax
	call	_ZlsIdERSoS0_7printerIT_E
	movabs	rdi, .L.str.4
	mov	rcx, rax
	mov	rdx, rdi
	call	_ZStlsISt11char_traitsIcEERSt13basic_ostreamIcT_ES5_PKc
	movabs	rbx, .L.str.11
	mov	rcx, rax
	mov	rdx, rbx
	call	_ZStlsISt11char_traitsIcEERSt13basic_ostreamIcT_ES5_PKc
	lea	rdx, [rsp + 288]
	mov	rcx, rax
	call	_ZlsI1XERSoS1_7printerIT_E
.LBB11_115:
	mov	rcx, rax
	mov	rdx, rdi
	call	_ZStlsISt11char_traitsIcEERSt13basic_ostreamIcT_ES5_PKc
	mov	rcx, rax
	mov	rdx, rbx
	call	_ZStlsISt11char_traitsIcEERSt13basic_ostreamIcT_ES5_PKc
	lea	rdx, [rsp + 224]
	mov	rcx, rax
	call	_ZlsIdERSoS0_7printerIT_E
	jmp	.LBB11_118
.LBB11_116:
	lea	r14, [rsp + 8*rsi + 224]
	movabs	rcx, _ZSt4cerr
	movabs	rdx, .L.str.1
	vzeroupper
	call	_ZStlsISt11char_traitsIcEERSt13basic_ostreamIcT_ES5_PKc
	movabs	rdi, _ZTS1X
	mov	rcx, rax
	mov	rdx, rdi
	call	_ZStlsISt11char_traitsIcEERSt13basic_ostreamIcT_ES5_PKc
	movabs	rdx, .L.str.2
	mov	rcx, rax
	call	_ZStlsISt11char_traitsIcEERSt13basic_ostreamIcT_ES5_PKc
	mov	rcx, rax
	mov	rdx, rdi
	call	_ZStlsISt11char_traitsIcEERSt13basic_ostreamIcT_ES5_PKc
	movabs	rdi, .L.str.10
	mov	rcx, rax
	mov	rdx, rdi
	call	_ZStlsISt11char_traitsIcEERSt13basic_ostreamIcT_ES5_PKc
	movabs	rcx, _ZTId
	mov	rcx, qword ptr [rcx + 8]
	lea	rdx, [rcx + 1]
	cmp	byte ptr [rcx], 42
	cmovne	rdx, rcx
	mov	rcx, rax
	call	_ZStlsISt11char_traitsIcEERSt13basic_ostreamIcT_ES5_PKc
	mov	rcx, rax
	mov	rdx, rdi
	call	_ZStlsISt11char_traitsIcEERSt13basic_ostreamIcT_ES5_PKc
	movabs	rdx, .L.str.3
	mov	rcx, rax
	call	_ZStlsISt11char_traitsIcEERSt13basic_ostreamIcT_ES5_PKc
	lea	rdx, [rsp + 64]
	mov	rcx, rax
	call	_ZlsI1XERSoS1_7printerIT_E
	movabs	rdi, .L.str.4
	mov	rcx, rax
	mov	rdx, rdi
	call	_ZStlsISt11char_traitsIcEERSt13basic_ostreamIcT_ES5_PKc
	movabs	rbx, .L.str.11
	mov	rcx, rax
	mov	rdx, rbx
	call	_ZStlsISt11char_traitsIcEERSt13basic_ostreamIcT_ES5_PKc
	lea	rdx, [rsp + 352]
	mov	rcx, rax
	call	_ZlsI1XERSoS1_7printerIT_E
	mov	rcx, rax
	mov	rdx, rdi
	call	_ZStlsISt11char_traitsIcEERSt13basic_ostreamIcT_ES5_PKc
	mov	rcx, rax
	mov	rdx, rbx
	call	_ZStlsISt11char_traitsIcEERSt13basic_ostreamIcT_ES5_PKc
	lea	rdx, [rsp + 512]
	mov	rcx, rax
	call	_ZlsIdERSoS0_7printerIT_E
	jmp	.LBB11_122
.LBB11_117:
	lea	r14, [rsp + 8*rsi + 64]
	movabs	rcx, _ZSt4cerr
	movabs	rdx, .L.str.1
	vzeroupper
	call	_ZStlsISt11char_traitsIcEERSt13basic_ostreamIcT_ES5_PKc
	movabs	rcx, _ZTId
	mov	rdi, qword ptr [rcx + 8]
	lea	rbx, [rdi + 1]
	cmp	byte ptr [rdi], 42
	mov	rdx, rdi
	cmove	rdx, rbx
	mov	rcx, rax
	call	_ZStlsISt11char_traitsIcEERSt13basic_ostreamIcT_ES5_PKc
	movabs	rdx, .L.str.2
	mov	rcx, rax
	call	_ZStlsISt11char_traitsIcEERSt13basic_ostreamIcT_ES5_PKc
	cmp	byte ptr [rdi], 42
	cmove	rdi, rbx
	mov	rcx, rax
	mov	rdx, rdi
	call	_ZStlsISt11char_traitsIcEERSt13basic_ostreamIcT_ES5_PKc
	movabs	rdi, .L.str.10
	mov	rcx, rax
	mov	rdx, rdi
	call	_ZStlsISt11char_traitsIcEERSt13basic_ostreamIcT_ES5_PKc
	movabs	rdx, _ZTS1X
	mov	rcx, rax
	call	_ZStlsISt11char_traitsIcEERSt13basic_ostreamIcT_ES5_PKc
	mov	rcx, rax
	mov	rdx, rdi
	call	_ZStlsISt11char_traitsIcEERSt13basic_ostreamIcT_ES5_PKc
	movabs	rdx, .L.str.3
	mov	rcx, rax
	call	_ZStlsISt11char_traitsIcEERSt13basic_ostreamIcT_ES5_PKc
	lea	rdx, [rsp + 352]
	mov	rcx, rax
	call	_ZlsIdERSoS0_7printerIT_E
	movabs	rdi, .L.str.4
	mov	rcx, rax
	mov	rdx, rdi
	call	_ZStlsISt11char_traitsIcEERSt13basic_ostreamIcT_ES5_PKc
	movabs	rbx, .L.str.11
	mov	rcx, rax
	mov	rdx, rbx
	call	_ZStlsISt11char_traitsIcEERSt13basic_ostreamIcT_ES5_PKc
	lea	rdx, [rsp + 224]
	mov	rcx, rax
	call	_ZlsIdERSoS0_7printerIT_E
	mov	rcx, rax
	mov	rdx, rdi
	call	_ZStlsISt11char_traitsIcEERSt13basic_ostreamIcT_ES5_PKc
	mov	rcx, rax
	mov	rdx, rbx
	call	_ZStlsISt11char_traitsIcEERSt13basic_ostreamIcT_ES5_PKc
	lea	rdx, [rsp + 288]
	mov	rcx, rax
	call	_ZlsI1XERSoS1_7printerIT_E
.LBB11_118:
	mov	rcx, rax
	mov	rdx, rdi
	call	_ZStlsISt11char_traitsIcEERSt13basic_ostreamIcT_ES5_PKc
	movabs	rdx, .L.str.5
	mov	rcx, rax
	call	_ZStlsISt11char_traitsIcEERSt13basic_ostreamIcT_ES5_PKc
	lea	rdx, [rsp + 64]
	jmp	.LBB11_124
.LBB11_119:
	lea	r14, [rsp + 8*rsi + 224]
	movabs	rcx, _ZSt4cerr
	movabs	rdx, .L.str.1
	vzeroupper
	call	_ZStlsISt11char_traitsIcEERSt13basic_ostreamIcT_ES5_PKc
	movabs	rdi, _ZTS1X
	mov	rcx, rax
	mov	rdx, rdi
	call	_ZStlsISt11char_traitsIcEERSt13basic_ostreamIcT_ES5_PKc
	movabs	rdx, .L.str.2
	mov	rcx, rax
	call	_ZStlsISt11char_traitsIcEERSt13basic_ostreamIcT_ES5_PKc
	movabs	rcx, _ZTId
	mov	rcx, qword ptr [rcx + 8]
	lea	rdx, [rcx + 1]
	cmp	byte ptr [rcx], 42
	cmovne	rdx, rcx
	mov	rcx, rax
	call	_ZStlsISt11char_traitsIcEERSt13basic_ostreamIcT_ES5_PKc
	movabs	rbx, .L.str.10
	mov	rcx, rax
	mov	rdx, rbx
	call	_ZStlsISt11char_traitsIcEERSt13basic_ostreamIcT_ES5_PKc
	mov	rcx, rax
	mov	rdx, rdi
	call	_ZStlsISt11char_traitsIcEERSt13basic_ostreamIcT_ES5_PKc
	mov	rcx, rax
	mov	rdx, rbx
	call	_ZStlsISt11char_traitsIcEERSt13basic_ostreamIcT_ES5_PKc
	movabs	rdx, .L.str.3
	mov	rcx, rax
	call	_ZStlsISt11char_traitsIcEERSt13basic_ostreamIcT_ES5_PKc
	lea	rdx, [rsp + 64]
	mov	rcx, rax
	call	_ZlsI1XERSoS1_7printerIT_E
	movabs	rdi, .L.str.4
	mov	rcx, rax
	mov	rdx, rdi
	call	_ZStlsISt11char_traitsIcEERSt13basic_ostreamIcT_ES5_PKc
	movabs	rbx, .L.str.11
	mov	rcx, rax
	mov	rdx, rbx
	call	_ZStlsISt11char_traitsIcEERSt13basic_ostreamIcT_ES5_PKc
	lea	rdx, [rsp + 512]
	mov	rcx, rax
	call	_ZlsIdERSoS0_7printerIT_E
	jmp	.LBB11_121
.LBB11_120:
	lea	r14, [rsp + 8*rsi + 224]
	movabs	rcx, _ZSt4cerr
	movabs	rdx, .L.str.1
	vzeroupper
	call	_ZStlsISt11char_traitsIcEERSt13basic_ostreamIcT_ES5_PKc
	movabs	rcx, _ZTId
	mov	rcx, qword ptr [rcx + 8]
	lea	rdx, [rcx + 1]
	cmp	byte ptr [rcx], 42
	cmovne	rdx, rcx
	mov	rcx, rax
	call	_ZStlsISt11char_traitsIcEERSt13basic_ostreamIcT_ES5_PKc
	movabs	rdx, .L.str.2
	mov	rcx, rax
	call	_ZStlsISt11char_traitsIcEERSt13basic_ostreamIcT_ES5_PKc
	movabs	rdi, _ZTS1X
	mov	rcx, rax
	mov	rdx, rdi
	call	_ZStlsISt11char_traitsIcEERSt13basic_ostreamIcT_ES5_PKc
	movabs	rbx, .L.str.10
	mov	rcx, rax
	mov	rdx, rbx
	call	_ZStlsISt11char_traitsIcEERSt13basic_ostreamIcT_ES5_PKc
	mov	rcx, rax
	mov	rdx, rdi
	call	_ZStlsISt11char_traitsIcEERSt13basic_ostreamIcT_ES5_PKc
	mov	rcx, rax
	mov	rdx, rbx
	call	_ZStlsISt11char_traitsIcEERSt13basic_ostreamIcT_ES5_PKc
	movabs	rdx, .L.str.3
	mov	rcx, rax
	call	_ZStlsISt11char_traitsIcEERSt13basic_ostreamIcT_ES5_PKc
	lea	rdx, [rsp + 512]
	mov	rcx, rax
	call	_ZlsIdERSoS0_7printerIT_E
	movabs	rdi, .L.str.4
	mov	rcx, rax
	mov	rdx, rdi
	call	_ZStlsISt11char_traitsIcEERSt13basic_ostreamIcT_ES5_PKc
	movabs	rbx, .L.str.11
	mov	rcx, rax
	mov	rdx, rbx
	call	_ZStlsISt11char_traitsIcEERSt13basic_ostreamIcT_ES5_PKc
	lea	rdx, [rsp + 64]
	mov	rcx, rax
	call	_ZlsI1XERSoS1_7printerIT_E
.LBB11_121:
	mov	rcx, rax
	mov	rdx, rdi
	call	_ZStlsISt11char_traitsIcEERSt13basic_ostreamIcT_ES5_PKc
	mov	rcx, rax
	mov	rdx, rbx
	call	_ZStlsISt11char_traitsIcEERSt13basic_ostreamIcT_ES5_PKc
	lea	rdx, [rsp + 352]
	mov	rcx, rax
	call	_ZlsI1XERSoS1_7printerIT_E
.LBB11_122:
	mov	rcx, rax
	mov	rdx, rdi
	call	_ZStlsISt11char_traitsIcEERSt13basic_ostreamIcT_ES5_PKc
	movabs	rdx, .L.str.5
	mov	rcx, rax
	call	_ZStlsISt11char_traitsIcEERSt13basic_ostreamIcT_ES5_PKc
	lea	rdx, [rsp + 224]
	jmp	.LBB11_124
.LBB11_123:
	lea	r14, [rsp + 8*rsi + 416]
	movabs	rcx, _ZSt4cerr
	movabs	rdx, .L.str.1
	vzeroupper
	call	_ZStlsISt11char_traitsIcEERSt13basic_ostreamIcT_ES5_PKc
	movabs	rdi, _ZTS1X
	mov	rcx, rax
	mov	rdx, rdi
	call	_ZStlsISt11char_traitsIcEERSt13basic_ostreamIcT_ES5_PKc
	movabs	rdx, .L.str.2
	mov	rcx, rax
	call	_ZStlsISt11char_traitsIcEERSt13basic_ostreamIcT_ES5_PKc
	mov	rcx, rax
	mov	rdx, rdi
	call	_ZStlsISt11char_traitsIcEERSt13basic_ostreamIcT_ES5_PKc
	movabs	rbx, .L.str.10
	mov	rcx, rax
	mov	rdx, rbx
	call	_ZStlsISt11char_traitsIcEERSt13basic_ostreamIcT_ES5_PKc
	mov	rcx, rax
	mov	rdx, rdi
	call	_ZStlsISt11char_traitsIcEERSt13basic_ostreamIcT_ES5_PKc
	mov	rcx, rax
	mov	rdx, rbx
	call	_ZStlsISt11char_traitsIcEERSt13basic_ostreamIcT_ES5_PKc
	movabs	rdx, .L.str.3
	mov	rcx, rax
	call	_ZStlsISt11char_traitsIcEERSt13basic_ostreamIcT_ES5_PKc
	lea	rdx, [rsp + 352]
	mov	rcx, rax
	call	_ZlsI1XERSoS1_7printerIT_E
	movabs	rdi, .L.str.4
	mov	rcx, rax
	mov	rdx, rdi
	call	_ZStlsISt11char_traitsIcEERSt13basic_ostreamIcT_ES5_PKc
	movabs	rbx, .L.str.11
	mov	rcx, rax
	mov	rdx, rbx
	call	_ZStlsISt11char_traitsIcEERSt13basic_ostreamIcT_ES5_PKc
	lea	rdx, [rsp + 224]
	mov	rcx, rax
	call	_ZlsI1XERSoS1_7printerIT_E
	mov	rcx, rax
	mov	rdx, rdi
	call	_ZStlsISt11char_traitsIcEERSt13basic_ostreamIcT_ES5_PKc
	mov	rcx, rax
	mov	rdx, rbx
	call	_ZStlsISt11char_traitsIcEERSt13basic_ostreamIcT_ES5_PKc
	lea	rdx, [rsp + 512]
	mov	rcx, rax
	call	_ZlsI1XERSoS1_7printerIT_E
	mov	rcx, rax
	mov	rdx, rdi
	call	_ZStlsISt11char_traitsIcEERSt13basic_ostreamIcT_ES5_PKc
	movabs	rdx, .L.str.5
	mov	rcx, rax
	call	_ZStlsISt11char_traitsIcEERSt13basic_ostreamIcT_ES5_PKc
	lea	rdx, [rsp + 416]
.LBB11_124:
	mov	rcx, rax
	call	_ZlsI1XERSoS1_7printerIT_E
	mov	rcx, rax
	mov	rdx, rdi
	call	_ZStlsISt11char_traitsIcEERSt13basic_ostreamIcT_ES5_PKc
	movabs	rdx, .L.str.14
	mov	rcx, rax
	call	_ZStlsISt11char_traitsIcEERSt13basic_ostreamIcT_ES5_PKc
	movabs	rdx, .L.str.7
	mov	rcx, rax
	call	_ZStlsISt11char_traitsIcEERSt13basic_ostreamIcT_ES5_PKc
	mov	rcx, rax
	mov	edx, esi
	jmp	.LBB11_153
.LBB11_125:
	mov	ebx, eax
	lea	rdi, [rsp + 8*r15 + 64]
	jmp	.LBB11_133
.LBB11_126:
	lea	rdi, [rsp + 8*r13 + 64]
	mov	ebx, r10d
	jmp	.LBB11_133
.LBB11_127:
	lea	rdi, [rsp + 8*r12 + 64]
	mov	ebx, r11d
	jmp	.LBB11_133
.LBB11_128:
	lea	rdi, [rsp + 8*r14 + 64]
	jmp	.LBB11_133
.LBB11_129:
	lea	rdi, [rsp + 8*r8 + 64]
	mov	ebx, esi
	jmp	.LBB11_133
.LBB11_130:
	lea	rdi, [rsp + 8*r9 + 64]
	mov	ebx, edx
	jmp	.LBB11_133
.LBB11_131:
	lea	rdi, [rsp + 8*r10 + 64]
	mov	ebx, dword ptr [rsp + 196] # 4-byte Reload
	jmp	.LBB11_133
.LBB11_132:
	mov	ebx, esi
	lea	rdi, [rsp + 8*r11 + 64]
.LBB11_133:
	movabs	rcx, _ZSt4cerr
	movabs	rdx, .L.str.1
	vzeroupper
	call	_ZStlsISt11char_traitsIcEERSt13basic_ostreamIcT_ES5_PKc
	movabs	rdx, _ZTS1X
	mov	rcx, rax
	call	_ZStlsISt11char_traitsIcEERSt13basic_ostreamIcT_ES5_PKc
	movabs	rdx, .L.str.2
	mov	rcx, rax
	call	_ZStlsISt11char_traitsIcEERSt13basic_ostreamIcT_ES5_PKc
	movabs	rdx, .L.str.3
	mov	rcx, rax
	call	_ZStlsISt11char_traitsIcEERSt13basic_ostreamIcT_ES5_PKc
	lea	rdx, [rsp + 288]
	mov	rcx, rax
	call	_ZlsI1XERSoS1_7printerIT_E
	movabs	rsi, .L.str.4
	mov	rcx, rax
	mov	rdx, rsi
	call	_ZStlsISt11char_traitsIcEERSt13basic_ostreamIcT_ES5_PKc
	movabs	rdx, .L.str.5
	mov	rcx, rax
	call	_ZStlsISt11char_traitsIcEERSt13basic_ostreamIcT_ES5_PKc
	lea	rdx, [rsp + 64]
	mov	rcx, rax
	call	_ZlsI1XERSoS1_7printerIT_E
	mov	rcx, rax
	mov	rdx, rsi
	call	_ZStlsISt11char_traitsIcEERSt13basic_ostreamIcT_ES5_PKc
	movabs	rdx, .L.str.6
	mov	rcx, rax
	call	_ZStlsISt11char_traitsIcEERSt13basic_ostreamIcT_ES5_PKc
	movabs	rdx, .L.str.7
	mov	rcx, rax
	call	_ZStlsISt11char_traitsIcEERSt13basic_ostreamIcT_ES5_PKc
	mov	rcx, rax
	mov	edx, ebx
	call	_ZNSolsEi
	movabs	rdx, .L.str.8
	mov	rcx, rax
	call	_ZStlsISt11char_traitsIcEERSt13basic_ostreamIcT_ES5_PKc
	mov	rcx, rax
	vmovapd	xmm1, xmm6
	call	_ZNSo9_M_insertIdEERSoT_
	movabs	rdx, .L.str.9
	mov	rcx, rax
	call	_ZStlsISt11char_traitsIcEERSt13basic_ostreamIcT_ES5_PKc
	vmovsd	xmm1, qword ptr [rdi]   # xmm1 = mem[0],zero
	mov	rcx, rax
	call	_ZNSo9_M_insertIdEERSoT_
	mov	rcx, rax
	mov	rdx, rsi
	jmp	.LBB11_198
.LBB11_134:
	lea	r14, [rsp + 8*rdx + 224]
	mov	ebx, dword ptr [rsp + 220] # 4-byte Reload
	jmp	.LBB11_142
.LBB11_135:
	mov	ebx, dword ptr [rsp + 60] # 4-byte Reload
	lea	r14, [rsp + 8*r13 + 224]
	jmp	.LBB11_142
.LBB11_136:
	lea	r14, [rsp + 8*r12 + 224]
	mov	ebx, dword ptr [rsp + 208] # 4-byte Reload
	jmp	.LBB11_142
.LBB11_137:
	lea	r14, [rsp + 8*r14 + 224]
	mov	ebx, dword ptr [rsp + 204] # 4-byte Reload
	jmp	.LBB11_142
.LBB11_138:
	lea	r14, [rsp + 8*r8 + 224]
	mov	ebx, dword ptr [rsp + 216] # 4-byte Reload
	jmp	.LBB11_142
.LBB11_139:
	lea	r14, [rsp + 8*r9 + 224]
	mov	ebx, dword ptr [rsp + 212] # 4-byte Reload
	jmp	.LBB11_142
.LBB11_140:
	lea	r14, [rsp + 8*r10 + 224]
	mov	ebx, dword ptr [rsp + 196] # 4-byte Reload
	jmp	.LBB11_142
.LBB11_141:
	lea	r14, [rsp + 8*r11 + 224]
	mov	ebx, dword ptr [rsp + 200] # 4-byte Reload
.LBB11_142:
	movabs	rcx, _ZSt4cerr
	movabs	rdx, .L.str.1
	vzeroupper
	call	_ZStlsISt11char_traitsIcEERSt13basic_ostreamIcT_ES5_PKc
	movabs	rdi, _ZTS1X
	mov	rcx, rax
	mov	rdx, rdi
	call	_ZStlsISt11char_traitsIcEERSt13basic_ostreamIcT_ES5_PKc
	movabs	rdx, .L.str.2
	mov	rcx, rax
	call	_ZStlsISt11char_traitsIcEERSt13basic_ostreamIcT_ES5_PKc
	mov	rcx, rax
	mov	rdx, rdi
	call	_ZStlsISt11char_traitsIcEERSt13basic_ostreamIcT_ES5_PKc
	movabs	rdx, .L.str.10
	mov	rcx, rax
	call	_ZStlsISt11char_traitsIcEERSt13basic_ostreamIcT_ES5_PKc
	movabs	rdx, .L.str.3
	mov	rcx, rax
	call	_ZStlsISt11char_traitsIcEERSt13basic_ostreamIcT_ES5_PKc
	lea	rdx, [rsp + 64]
	mov	rcx, rax
	call	_ZlsI1XERSoS1_7printerIT_E
	movabs	rdi, .L.str.4
	mov	rcx, rax
	mov	rdx, rdi
	call	_ZStlsISt11char_traitsIcEERSt13basic_ostreamIcT_ES5_PKc
	movabs	rdx, .L.str.11
	mov	rcx, rax
	call	_ZStlsISt11char_traitsIcEERSt13basic_ostreamIcT_ES5_PKc
	lea	rdx, [rsp + 352]
	mov	rcx, rax
	call	_ZlsI1XERSoS1_7printerIT_E
	mov	rcx, rax
	mov	rdx, rdi
	call	_ZStlsISt11char_traitsIcEERSt13basic_ostreamIcT_ES5_PKc
	movabs	rdx, .L.str.5
	mov	rcx, rax
	call	_ZStlsISt11char_traitsIcEERSt13basic_ostreamIcT_ES5_PKc
	lea	rdx, [rsp + 224]
	jmp	.LBB11_152
.LBB11_143:
	lea	r14, [rsp + 8*rdx + 64]
	mov	ebx, dword ptr [rsp + 220] # 4-byte Reload
	jmp	.LBB11_151
.LBB11_144:
	mov	ebx, dword ptr [rsp + 60] # 4-byte Reload
	lea	r14, [rsp + 8*r13 + 64]
	jmp	.LBB11_151
.LBB11_145:
	lea	r14, [rsp + 8*r12 + 64]
	mov	ebx, dword ptr [rsp + 208] # 4-byte Reload
	jmp	.LBB11_151
.LBB11_146:
	lea	r14, [rsp + 8*r14 + 64]
	mov	ebx, dword ptr [rsp + 204] # 4-byte Reload
	jmp	.LBB11_151
.LBB11_147:
	lea	r14, [rsp + 8*r8 + 64]
	mov	ebx, dword ptr [rsp + 216] # 4-byte Reload
	jmp	.LBB11_151
.LBB11_148:
	lea	r14, [rsp + 8*r9 + 64]
	mov	ebx, dword ptr [rsp + 212] # 4-byte Reload
	jmp	.LBB11_151
.LBB11_149:
	lea	r14, [rsp + 8*r10 + 64]
	mov	ebx, dword ptr [rsp + 196] # 4-byte Reload
	jmp	.LBB11_151
.LBB11_150:
	lea	r14, [rsp + 8*r11 + 64]
	mov	ebx, dword ptr [rsp + 200] # 4-byte Reload
.LBB11_151:
	movabs	rcx, _ZSt4cerr
	movabs	rdx, .L.str.1
	vzeroupper
	call	_ZStlsISt11char_traitsIcEERSt13basic_ostreamIcT_ES5_PKc
	movabs	rcx, _ZTId
	mov	rcx, qword ptr [rcx + 8]
	lea	rdx, [rcx + 1]
	cmp	byte ptr [rcx], 42
	cmovne	rdx, rcx
	mov	rcx, rax
	call	_ZStlsISt11char_traitsIcEERSt13basic_ostreamIcT_ES5_PKc
	movabs	rdx, .L.str.2
	mov	rcx, rax
	call	_ZStlsISt11char_traitsIcEERSt13basic_ostreamIcT_ES5_PKc
	movabs	rdx, _ZTS1X
	mov	rcx, rax
	call	_ZStlsISt11char_traitsIcEERSt13basic_ostreamIcT_ES5_PKc
	movabs	rdx, .L.str.10
	mov	rcx, rax
	call	_ZStlsISt11char_traitsIcEERSt13basic_ostreamIcT_ES5_PKc
	movabs	rdx, .L.str.3
	mov	rcx, rax
	call	_ZStlsISt11char_traitsIcEERSt13basic_ostreamIcT_ES5_PKc
	lea	rdx, [rsp + 352]
	mov	rcx, rax
	call	_ZlsIdERSoS0_7printerIT_E
	movabs	rdi, .L.str.4
	mov	rcx, rax
	mov	rdx, rdi
	call	_ZStlsISt11char_traitsIcEERSt13basic_ostreamIcT_ES5_PKc
	movabs	rdx, .L.str.11
	mov	rcx, rax
	call	_ZStlsISt11char_traitsIcEERSt13basic_ostreamIcT_ES5_PKc
	lea	rdx, [rsp + 288]
	mov	rcx, rax
	call	_ZlsI1XERSoS1_7printerIT_E
	mov	rcx, rax
	mov	rdx, rdi
	call	_ZStlsISt11char_traitsIcEERSt13basic_ostreamIcT_ES5_PKc
	movabs	rdx, .L.str.5
	mov	rcx, rax
	call	_ZStlsISt11char_traitsIcEERSt13basic_ostreamIcT_ES5_PKc
	lea	rdx, [rsp + 64]
.LBB11_152:
	mov	rcx, rax
	call	_ZlsI1XERSoS1_7printerIT_E
	mov	rcx, rax
	mov	rdx, rdi
	call	_ZStlsISt11char_traitsIcEERSt13basic_ostreamIcT_ES5_PKc
	movabs	rdx, .L.str.12
	mov	rcx, rax
	call	_ZStlsISt11char_traitsIcEERSt13basic_ostreamIcT_ES5_PKc
	movabs	rdx, .L.str.7
	mov	rcx, rax
	call	_ZStlsISt11char_traitsIcEERSt13basic_ostreamIcT_ES5_PKc
	mov	rcx, rax
	mov	edx, ebx
.LBB11_153:
	call	_ZNSolsEi
	movabs	rdx, .L.str.8
	mov	rcx, rax
	call	_ZStlsISt11char_traitsIcEERSt13basic_ostreamIcT_ES5_PKc
	mov	rcx, rax
	vmovapd	xmm1, xmm6
	call	_ZNSo9_M_insertIdEERSoT_
	movabs	rdx, .L.str.9
	mov	rcx, rax
	call	_ZStlsISt11char_traitsIcEERSt13basic_ostreamIcT_ES5_PKc
	vmovsd	xmm1, qword ptr [r14]   # xmm1 = mem[0],zero
	jmp	.LBB11_197
.LBB11_154:
	lea	rbx, [rsp + 8*rdx + 64]
	mov	eax, dword ptr [rsp + 220] # 4-byte Reload
	jmp	.LBB11_162
.LBB11_155:
	lea	rbx, [rsp + 8*r13 + 64]
	jmp	.LBB11_163
.LBB11_156:
	lea	rbx, [rsp + 8*r12 + 64]
	mov	eax, dword ptr [rsp + 208] # 4-byte Reload
	jmp	.LBB11_162
.LBB11_157:
	lea	rbx, [rsp + 8*r14 + 64]
	mov	eax, dword ptr [rsp + 204] # 4-byte Reload
	jmp	.LBB11_162
.LBB11_158:
	lea	rbx, [rsp + 8*r8 + 64]
	mov	eax, dword ptr [rsp + 216] # 4-byte Reload
	jmp	.LBB11_162
.LBB11_159:
	lea	rbx, [rsp + 8*r9 + 64]
	mov	eax, dword ptr [rsp + 212] # 4-byte Reload
	jmp	.LBB11_162
.LBB11_160:
	lea	rbx, [rsp + 8*r10 + 64]
	mov	eax, dword ptr [rsp + 196] # 4-byte Reload
	jmp	.LBB11_162
.LBB11_161:
	lea	rbx, [rsp + 8*r11 + 64]
	mov	eax, dword ptr [rsp + 200] # 4-byte Reload
.LBB11_162:
	mov	dword ptr [rsp + 60], eax # 4-byte Spill
.LBB11_163:
	movabs	rcx, _ZSt4cerr
	movabs	rdx, .L.str.1
	vzeroupper
	call	_ZStlsISt11char_traitsIcEERSt13basic_ostreamIcT_ES5_PKc
	movabs	rdx, _ZTS1X
	mov	rcx, rax
	call	_ZStlsISt11char_traitsIcEERSt13basic_ostreamIcT_ES5_PKc
	movabs	rdx, .L.str.2
	mov	rcx, rax
	call	_ZStlsISt11char_traitsIcEERSt13basic_ostreamIcT_ES5_PKc
	movabs	rcx, _ZTId
	mov	rcx, qword ptr [rcx + 8]
	lea	rdx, [rcx + 1]
	cmp	byte ptr [rcx], 42
	cmovne	rdx, rcx
	mov	rcx, rax
	call	_ZStlsISt11char_traitsIcEERSt13basic_ostreamIcT_ES5_PKc
	movabs	rdx, .L.str.10
	mov	rcx, rax
	call	_ZStlsISt11char_traitsIcEERSt13basic_ostreamIcT_ES5_PKc
	movabs	rdx, .L.str.3
	mov	rcx, rax
	call	_ZStlsISt11char_traitsIcEERSt13basic_ostreamIcT_ES5_PKc
	lea	rdx, [rsp + 288]
	mov	rcx, rax
	call	_ZlsI1XERSoS1_7printerIT_E
	movabs	rdi, .L.str.4
	mov	rcx, rax
	mov	rdx, rdi
	call	_ZStlsISt11char_traitsIcEERSt13basic_ostreamIcT_ES5_PKc
	movabs	rdx, .L.str.11
	mov	rcx, rax
	call	_ZStlsISt11char_traitsIcEERSt13basic_ostreamIcT_ES5_PKc
	lea	rdx, [rsp + 352]
	mov	rcx, rax
	call	_ZlsIdERSoS0_7printerIT_E
	mov	rcx, rax
	mov	rdx, rdi
	call	_ZStlsISt11char_traitsIcEERSt13basic_ostreamIcT_ES5_PKc
	movabs	rdx, .L.str.5
	mov	rcx, rax
	call	_ZStlsISt11char_traitsIcEERSt13basic_ostreamIcT_ES5_PKc
	lea	rdx, [rsp + 64]
	mov	rcx, rax
	call	_ZlsI1XERSoS1_7printerIT_E
	mov	rcx, rax
	mov	rdx, rdi
	call	_ZStlsISt11char_traitsIcEERSt13basic_ostreamIcT_ES5_PKc
	movabs	rdx, .L.str.12
	jmp	.LBB11_196
.LBB11_164:
	lea	rbx, [rsp + 8*rdx + 224]
	mov	eax, dword ptr [rsp + 220] # 4-byte Reload
	jmp	.LBB11_172
.LBB11_165:
	lea	rbx, [rsp + 8*r13 + 224]
	jmp	.LBB11_173
.LBB11_166:
	lea	rbx, [rsp + 8*r12 + 224]
	mov	eax, dword ptr [rsp + 208] # 4-byte Reload
	jmp	.LBB11_172
.LBB11_167:
	lea	rbx, [rsp + 8*r14 + 224]
	mov	eax, dword ptr [rsp + 204] # 4-byte Reload
	jmp	.LBB11_172
.LBB11_168:
	lea	rbx, [rsp + 8*r8 + 224]
	mov	eax, dword ptr [rsp + 216] # 4-byte Reload
	jmp	.LBB11_172
.LBB11_169:
	lea	rbx, [rsp + 8*r9 + 224]
	mov	eax, dword ptr [rsp + 212] # 4-byte Reload
	jmp	.LBB11_172
.LBB11_170:
	lea	rbx, [rsp + 8*r10 + 224]
	mov	eax, dword ptr [rsp + 196] # 4-byte Reload
	jmp	.LBB11_172
.LBB11_171:
	lea	rbx, [rsp + 8*r11 + 224]
	mov	eax, dword ptr [rsp + 200] # 4-byte Reload
.LBB11_172:
	mov	dword ptr [rsp + 60], eax # 4-byte Spill
.LBB11_173:
	movabs	rcx, _ZSt4cerr
	movabs	rdx, .L.str.1
	vzeroupper
	call	_ZStlsISt11char_traitsIcEERSt13basic_ostreamIcT_ES5_PKc
	movabs	rdi, _ZTS1X
	mov	rcx, rax
	mov	rdx, rdi
	call	_ZStlsISt11char_traitsIcEERSt13basic_ostreamIcT_ES5_PKc
	movabs	rdx, .L.str.2
	mov	rcx, rax
	call	_ZStlsISt11char_traitsIcEERSt13basic_ostreamIcT_ES5_PKc
	mov	rcx, rax
	mov	rdx, rdi
	call	_ZStlsISt11char_traitsIcEERSt13basic_ostreamIcT_ES5_PKc
	movabs	rdx, .L.str.10
	mov	rcx, rax
	call	_ZStlsISt11char_traitsIcEERSt13basic_ostreamIcT_ES5_PKc
	movabs	rdx, .L.str.3
	mov	rcx, rax
	call	_ZStlsISt11char_traitsIcEERSt13basic_ostreamIcT_ES5_PKc
	lea	rdx, [rsp + 64]
	mov	rcx, rax
	call	_ZlsI1XERSoS1_7printerIT_E
	movabs	rdi, .L.str.4
	mov	rcx, rax
	mov	rdx, rdi
	call	_ZStlsISt11char_traitsIcEERSt13basic_ostreamIcT_ES5_PKc
	movabs	rdx, .L.str.11
	mov	rcx, rax
	call	_ZStlsISt11char_traitsIcEERSt13basic_ostreamIcT_ES5_PKc
	lea	rdx, [rsp + 352]
	mov	rcx, rax
	call	_ZlsI1XERSoS1_7printerIT_E
	mov	rcx, rax
	mov	rdx, rdi
	call	_ZStlsISt11char_traitsIcEERSt13basic_ostreamIcT_ES5_PKc
	movabs	rdx, .L.str.5
	mov	rcx, rax
	call	_ZStlsISt11char_traitsIcEERSt13basic_ostreamIcT_ES5_PKc
	lea	rdx, [rsp + 224]
	jmp	.LBB11_195
.LBB11_174:
	lea	rbx, [rsp + 8*rdx + 64]
	mov	eax, dword ptr [rsp + 220] # 4-byte Reload
	jmp	.LBB11_182
.LBB11_175:
	lea	rbx, [rsp + 8*r13 + 64]
	jmp	.LBB11_183
.LBB11_176:
	lea	rbx, [rsp + 8*r12 + 64]
	mov	eax, dword ptr [rsp + 208] # 4-byte Reload
	jmp	.LBB11_182
.LBB11_177:
	lea	rbx, [rsp + 8*r14 + 64]
	mov	eax, dword ptr [rsp + 204] # 4-byte Reload
	jmp	.LBB11_182
.LBB11_178:
	lea	rbx, [rsp + 8*r8 + 64]
	mov	eax, dword ptr [rsp + 216] # 4-byte Reload
	jmp	.LBB11_182
.LBB11_179:
	lea	rbx, [rsp + 8*r9 + 64]
	mov	eax, dword ptr [rsp + 212] # 4-byte Reload
	jmp	.LBB11_182
.LBB11_180:
	lea	rbx, [rsp + 8*r10 + 64]
	mov	eax, dword ptr [rsp + 196] # 4-byte Reload
	jmp	.LBB11_182
.LBB11_181:
	lea	rbx, [rsp + 8*r11 + 64]
	mov	eax, dword ptr [rsp + 200] # 4-byte Reload
.LBB11_182:
	mov	dword ptr [rsp + 60], eax # 4-byte Spill
.LBB11_183:
	movabs	rcx, _ZSt4cerr
	movabs	rdx, .L.str.1
	vzeroupper
	call	_ZStlsISt11char_traitsIcEERSt13basic_ostreamIcT_ES5_PKc
	movabs	rcx, _ZTId
	mov	rcx, qword ptr [rcx + 8]
	lea	rdx, [rcx + 1]
	cmp	byte ptr [rcx], 42
	cmovne	rdx, rcx
	mov	rcx, rax
	call	_ZStlsISt11char_traitsIcEERSt13basic_ostreamIcT_ES5_PKc
	movabs	rdx, .L.str.2
	mov	rcx, rax
	call	_ZStlsISt11char_traitsIcEERSt13basic_ostreamIcT_ES5_PKc
	movabs	rdx, _ZTS1X
	mov	rcx, rax
	call	_ZStlsISt11char_traitsIcEERSt13basic_ostreamIcT_ES5_PKc
	movabs	rdx, .L.str.10
	mov	rcx, rax
	call	_ZStlsISt11char_traitsIcEERSt13basic_ostreamIcT_ES5_PKc
	movabs	rdx, .L.str.3
	mov	rcx, rax
	call	_ZStlsISt11char_traitsIcEERSt13basic_ostreamIcT_ES5_PKc
	lea	rdx, [rsp + 352]
	mov	rcx, rax
	call	_ZlsIdERSoS0_7printerIT_E
	movabs	rdi, .L.str.4
	mov	rcx, rax
	mov	rdx, rdi
	call	_ZStlsISt11char_traitsIcEERSt13basic_ostreamIcT_ES5_PKc
	movabs	rdx, .L.str.11
	mov	rcx, rax
	call	_ZStlsISt11char_traitsIcEERSt13basic_ostreamIcT_ES5_PKc
	lea	rdx, [rsp + 288]
	mov	rcx, rax
	call	_ZlsI1XERSoS1_7printerIT_E
	jmp	.LBB11_194
.LBB11_184:
	lea	rbx, [rsp + 8*rdx + 64]
	mov	eax, dword ptr [rsp + 220] # 4-byte Reload
	jmp	.LBB11_192
.LBB11_185:
	lea	rbx, [rsp + 8*r13 + 64]
	jmp	.LBB11_193
.LBB11_186:
	lea	rbx, [rsp + 8*r12 + 64]
	mov	eax, dword ptr [rsp + 208] # 4-byte Reload
	jmp	.LBB11_192
.LBB11_187:
	lea	rbx, [rsp + 8*r14 + 64]
	mov	eax, dword ptr [rsp + 204] # 4-byte Reload
	jmp	.LBB11_192
.LBB11_188:
	lea	rbx, [rsp + 8*r8 + 64]
	mov	eax, dword ptr [rsp + 216] # 4-byte Reload
	jmp	.LBB11_192
.LBB11_189:
	lea	rbx, [rsp + 8*r9 + 64]
	mov	eax, dword ptr [rsp + 212] # 4-byte Reload
	jmp	.LBB11_192
.LBB11_190:
	lea	rbx, [rsp + 8*r10 + 64]
	mov	eax, dword ptr [rsp + 196] # 4-byte Reload
	jmp	.LBB11_192
.LBB11_191:
	lea	rbx, [rsp + 8*r11 + 64]
	mov	eax, dword ptr [rsp + 200] # 4-byte Reload
.LBB11_192:
	mov	dword ptr [rsp + 60], eax # 4-byte Spill
.LBB11_193:
	movabs	rcx, _ZSt4cerr
	movabs	rdx, .L.str.1
	vzeroupper
	call	_ZStlsISt11char_traitsIcEERSt13basic_ostreamIcT_ES5_PKc
	movabs	rdx, _ZTS1X
	mov	rcx, rax
	call	_ZStlsISt11char_traitsIcEERSt13basic_ostreamIcT_ES5_PKc
	movabs	rdx, .L.str.2
	mov	rcx, rax
	call	_ZStlsISt11char_traitsIcEERSt13basic_ostreamIcT_ES5_PKc
	movabs	rcx, _ZTId
	mov	rcx, qword ptr [rcx + 8]
	lea	rdx, [rcx + 1]
	cmp	byte ptr [rcx], 42
	cmovne	rdx, rcx
	mov	rcx, rax
	call	_ZStlsISt11char_traitsIcEERSt13basic_ostreamIcT_ES5_PKc
	movabs	rdx, .L.str.10
	mov	rcx, rax
	call	_ZStlsISt11char_traitsIcEERSt13basic_ostreamIcT_ES5_PKc
	movabs	rdx, .L.str.3
	mov	rcx, rax
	call	_ZStlsISt11char_traitsIcEERSt13basic_ostreamIcT_ES5_PKc
	lea	rdx, [rsp + 288]
	mov	rcx, rax
	call	_ZlsI1XERSoS1_7printerIT_E
	movabs	rdi, .L.str.4
	mov	rcx, rax
	mov	rdx, rdi
	call	_ZStlsISt11char_traitsIcEERSt13basic_ostreamIcT_ES5_PKc
	movabs	rdx, .L.str.11
	mov	rcx, rax
	call	_ZStlsISt11char_traitsIcEERSt13basic_ostreamIcT_ES5_PKc
	lea	rdx, [rsp + 352]
	mov	rcx, rax
	call	_ZlsIdERSoS0_7printerIT_E
.LBB11_194:
	mov	rcx, rax
	mov	rdx, rdi
	call	_ZStlsISt11char_traitsIcEERSt13basic_ostreamIcT_ES5_PKc
	movabs	rdx, .L.str.5
	mov	rcx, rax
	call	_ZStlsISt11char_traitsIcEERSt13basic_ostreamIcT_ES5_PKc
	lea	rdx, [rsp + 64]
.LBB11_195:
	mov	rcx, rax
	call	_ZlsI1XERSoS1_7printerIT_E
	mov	rcx, rax
	mov	rdx, rdi
	call	_ZStlsISt11char_traitsIcEERSt13basic_ostreamIcT_ES5_PKc
	movabs	rdx, .L.str.13
.LBB11_196:
	mov	rcx, rax
	call	_ZStlsISt11char_traitsIcEERSt13basic_ostreamIcT_ES5_PKc
	movabs	rdx, .L.str.7
	mov	rcx, rax
	call	_ZStlsISt11char_traitsIcEERSt13basic_ostreamIcT_ES5_PKc
	mov	rcx, rax
	mov	edx, dword ptr [rsp + 60] # 4-byte Reload
	call	_ZNSolsEi
	movabs	rdx, .L.str.8
	mov	rcx, rax
	call	_ZStlsISt11char_traitsIcEERSt13basic_ostreamIcT_ES5_PKc
	mov	rcx, rax
	vmovapd	xmm1, xmm6
	call	_ZNSo9_M_insertIdEERSoT_
	movabs	rdx, .L.str.9
	mov	rcx, rax
	call	_ZStlsISt11char_traitsIcEERSt13basic_ostreamIcT_ES5_PKc
	vmovsd	xmm1, qword ptr [rbx]   # xmm1 = mem[0],zero
.LBB11_197:
	mov	rcx, rax
	call	_ZNSo9_M_insertIdEERSoT_
	mov	rcx, rax
	mov	rdx, rdi
.LBB11_198:
	call	_ZStlsISt11char_traitsIcEERSt13basic_ostreamIcT_ES5_PKc
	mov	ecx, 1
	call	exit
	ud2
	.seh_handlerdata
	.section	.text,"xr",discard,_Z12test_pack_spId1XEvPKT0_
.Lcfi112:
	.seh_endproc

	.def	 _Z12test_pack_spIN4math6scalarE1XEvPKT0_;
	.scl	2;
	.type	32;
	.endef
	.section	.text,"xr",discard,_Z12test_pack_spIN4math6scalarE1XEvPKT0_
	.globl	_Z12test_pack_spIN4math6scalarE1XEvPKT0_
	.p2align	4, 0x90
_Z12test_pack_spIN4math6scalarE1XEvPKT0_: # @_Z12test_pack_spIN4math6scalarE1XEvPKT0_
.Lcfi113:
.seh_proc _Z12test_pack_spIN4math6scalarE1XEvPKT0_
# BB#0:
	push	rbp
.Lcfi114:
	.seh_pushreg 5
	push	r15
.Lcfi115:
	.seh_pushreg 15
	push	r14
.Lcfi116:
	.seh_pushreg 14
	push	r13
.Lcfi117:
	.seh_pushreg 13
	push	r12
.Lcfi118:
	.seh_pushreg 12
	push	rsi
.Lcfi119:
	.seh_pushreg 6
	push	rdi
.Lcfi120:
	.seh_pushreg 7
	push	rbx
.Lcfi121:
	.seh_pushreg 3
	sub	rsp, 600
.Lcfi122:
	.seh_stackalloc 600
	lea	rbp, [rsp + 128]
.Lcfi123:
	.seh_setframe 5, 128
